 SciLexer

 Timestamp is 4a76e65a (Mon Aug 03 21:30:02 2009)

 Preferred load address is 10000000

 Start         Length     Name                   Class
 0001:00000000 0005d0eeH .text                   CODE
 0001:0005d0ee 00001590H .text$x                 CODE
 0001:0005e67e 0000109cH .text$yc                CODE
 0001:0005f71a 00000428H .text$yd                CODE
 0002:00000000 00000338H .idata$5                DATA
 0002:00000338 00000004H .CRT$XCA                DATA
 0002:0000033c 0000017cH .CRT$XCU                DATA
 0002:000004b8 00000004H .CRT$XCZ                DATA
 0002:000004bc 00000004H .CRT$XIA                DATA
 0002:000004c0 00000018H .CRT$XIC                DATA
 0002:000004d8 00000004H .CRT$XIZ                DATA
 0002:000004dc 00000004H .CRT$XPA                DATA
 0002:000004e0 00000004H .CRT$XPX                DATA
 0002:000004e4 00000004H .CRT$XPXA               DATA
 0002:000004e8 00000004H .CRT$XPZ                DATA
 0002:000004ec 00000004H .CRT$XTA                DATA
 0002:000004f0 00000004H .CRT$XTZ                DATA
 0002:000004f8 00005568H .rdata                  DATA
 0002:00005a60 00000a40H .rdata$r                DATA
 0002:000064a0 000001e4H .rdata$sxdata           DATA
 0002:00006684 00000004H .rtc$IAA                DATA
 0002:00006688 00000004H .rtc$IZZ                DATA
 0002:0000668c 00000004H .rtc$TAA                DATA
 0002:00006690 00000004H .rtc$TZZ                DATA
 0002:00006698 00001f84H .xdata$x                DATA
 0002:0000861c 00000064H .idata$2                DATA
 0002:00008680 00000014H .idata$3                DATA
 0002:00008694 00000338H .idata$4                DATA
 0002:000089cc 00000db2H .idata$6                DATA
 0002:00009780 0000005cH .edata                  DATA
 0003:00000000 00002100H .data                   DATA
 0003:00002100 00002a00H .bss                    DATA
 0004:00000000 000000e8H .rsrc$01                DATA
 0004:000000f0 00000488H .rsrc$02                DATA

  Address         Publics by Value              Rva+Base       Lib:Object

 0000:00000000       __except_list              00000000     <absolute>
 0000:00000079       ___safe_se_handler_count   00000079     <absolute>
 0000:00000000       ___ImageBase               10000000     <linker-defined>
 0001:00000000       ??0AutoComplete@@QAE@XZ    10001000 f   AutoComplete.obj
 0001:00000061       ??1AutoComplete@@QAE@XZ    10001061 f   AutoComplete.obj
 0001:0000008c       ?Active@AutoComplete@@QAE_NXZ 1000108c f   AutoComplete.obj
 0001:0000008f       ?SetStopChars@AutoComplete@@QAEXPBD@Z 1000108f f   AutoComplete.obj
 0001:000000b2       ?IsStopChar@AutoComplete@@QAE_ND@Z 100010b2 f   AutoComplete.obj
 0001:000000d6       ?SetFillUpChars@AutoComplete@@QAEXPBD@Z 100010d6 f   AutoComplete.obj
 0001:000000fc       ?IsFillUpChar@AutoComplete@@QAE_ND@Z 100010fc f   AutoComplete.obj
 0001:00000125       ?SetSeparator@AutoComplete@@QAEXD@Z 10001125 f   AutoComplete.obj
 0001:00000132       ?GetSeparator@AutoComplete@@QAEDXZ 10001132 f   AutoComplete.obj
 0001:00000139       ?SetTypesep@AutoComplete@@QAEXD@Z 10001139 f   AutoComplete.obj
 0001:00000146       ?GetTypesep@AutoComplete@@QAEDXZ 10001146 f   AutoComplete.obj
 0001:0000014d       ?SetList@AutoComplete@@QAEXPBD@Z 1000114d f   AutoComplete.obj
 0001:00000173       ?Show@AutoComplete@@QAEX_N@Z 10001173 f   AutoComplete.obj
 0001:00000199       ?Cancel@AutoComplete@@QAEXXZ 10001199 f   AutoComplete.obj
 0001:000001bd       ?Move@AutoComplete@@QAEXH@Z 100011bd f   AutoComplete.obj
 0001:000001fb       ?Select@AutoComplete@@QAEXPBD@Z 100011fb f   AutoComplete.obj
 0001:000003a2       ?Start@AutoComplete@@QAEXAAVWindow@@HHVPoint@@HH_N@Z 100013a2 f   AutoComplete.obj
 0001:000003f4       ?Contains@PRectangle@@QAE_NVPoint@@@Z 100013f4 f i CallTip.obj
 0001:00000419       ??_EWindow@@UAEPAXI@Z      10001419 f i CallTip.obj
 0001:00000419       ??_GWindow@@UAEPAXI@Z      10001419 f i CallTip.obj
 0001:00000435       ??1CallTip@@QAE@XZ         10001435 f   CallTip.obj
 0001:00000496       ?RefreshColourPalette@CallTip@@QAEXAAVPalette@@_N@Z 10001496 f   CallTip.obj
 0001:000004fb       ?IsTabCharacter@CallTip@@AAE_ND@Z 100014fb f   CallTip.obj
 0001:0000050d       ?NextTabPos@CallTip@@AAEHH@Z 1000150d f   CallTip.obj
 0001:0000052d       ?DrawChunk@CallTip@@AAEXPAVSurface@@AAHPBDHHHVPRectangle@@_N4@Z 1000152d f   CallTip.obj
 0001:0000076e       ?PaintContents@CallTip@@AAEHPAVSurface@@_N@Z 1000176e f   CallTip.obj
 0001:00000901       ?PaintCT@CallTip@@QAEXPAVSurface@@@Z 10001901 f   CallTip.obj
 0001:000009d1       ?MouseClick@CallTip@@QAEXVPoint@@@Z 100019d1 f   CallTip.obj
 0001:00000a1b       ?CallTipStart@CallTip@@QAE?AVPRectangle@@HVPoint@@PBD1HHHAAVWindow@@@Z 10001a1b f   CallTip.obj
 0001:00000bbd       ?CallTipCancel@CallTip@@QAEXXZ 10001bbd f   CallTip.obj
 0001:00000bd0       ?SetHighlight@CallTip@@QAEXHH@Z 10001bd0 f   CallTip.obj
 0001:00000bf7       ?SetTabSize@CallTip@@QAEXH@Z 10001bf7 f   CallTip.obj
 0001:00000c05       ?SetForeBack@CallTip@@QAEXABUColourPair@@0@Z 10001c05 f   CallTip.obj
 0001:00000c26       ??0CallTip@@QAE@XZ         10001c26 f   CallTip.obj
 0001:00000cf3       ?RangeAddDelta@SplitVectorWithRangeAdd@@QAEXHHH@Z 10001cf3 f i CellBuffer.obj
 0001:00000d49       ?BackStep@Partitioning@@AAEXH@Z 10001d49 f i CellBuffer.obj
 0001:00000d72       ?SetPerLine@LineVector@@QAEXPAVPerLine@@@Z 10001d72 f   CellBuffer.obj
 0001:00000d7c       ??0Action@@QAE@XZ          10001d7c f   CellBuffer.obj
 0001:00000d90       ?Create@Action@@QAEXW4actionType@@HPADH_N@Z 10001d90 f   CellBuffer.obj
 0001:00000dc1       ?Destroy@Action@@QAEXXZ    10001dc1 f   CellBuffer.obj
 0001:00000dd3       ?Grab@Action@@QAEXPAV1@@Z  10001dd3 f   CellBuffer.obj
 0001:00000e18       ?DropUndoSequence@UndoHistory@@QAEXXZ 10001e18 f   CellBuffer.obj
 0001:00000e1d       ?DeleteUndoHistory@UndoHistory@@QAEXXZ 10001e1d f   CellBuffer.obj
 0001:00000e5c       ?SetSavePoint@UndoHistory@@QAEXXZ 10001e5c f   CellBuffer.obj
 0001:00000e63       ?IsSavePoint@UndoHistory@@QBE_NXZ 10001e63 f   CellBuffer.obj
 0001:00000e6f       ?CanUndo@UndoHistory@@QBE_NXZ 10001e6f f   CellBuffer.obj
 0001:00000e7d       ?StartUndo@UndoHistory@@QAEHXZ 10001e7d f   CellBuffer.obj
 0001:00000eb8       ?GetUndoStep@UndoHistory@@QBEABVAction@@XZ 10001eb8 f   CellBuffer.obj
 0001:00000eb8       ?GetRedoStep@UndoHistory@@QBEABVAction@@XZ 10001eb8 f   CellBuffer.obj
 0001:00000ec1       ?CompletedUndoStep@UndoHistory@@QAEXXZ 10001ec1 f   CellBuffer.obj
 0001:00000ec5       ?CanRedo@UndoHistory@@QBE_NXZ 10001ec5 f   CellBuffer.obj
 0001:00000ed3       ?StartRedo@UndoHistory@@QAEHXZ 10001ed3 f   CellBuffer.obj
 0001:00000f18       ?CompletedRedoStep@UndoHistory@@QAEXXZ 10001f18 f   CellBuffer.obj
 0001:00000f1c       ?SetPerLine@CellBuffer@@QAEXPAVPerLine@@@Z 10001f1c f   CellBuffer.obj
 0001:00000f24       ?IsReadOnly@CellBuffer@@QAE_NXZ 10001f24 f   CellBuffer.obj
 0001:00000f28       ?SetReadOnly@CellBuffer@@QAEX_N@Z 10001f28 f   CellBuffer.obj
 0001:00000f32       ?SetSavePoint@CellBuffer@@QAEXXZ 10001f32 f   CellBuffer.obj
 0001:00000f3a       ?IsSavePoint@CellBuffer@@QAE_NXZ 10001f3a f   CellBuffer.obj
 0001:00000f42       ?SetUndoCollection@CellBuffer@@QAE_N_N@Z 10001f42 f   CellBuffer.obj
 0001:00000f59       ?IsCollectingUndo@CellBuffer@@QAE_NXZ 10001f59 f   CellBuffer.obj
 0001:00000f5d       ?DeleteUndoHistory@CellBuffer@@QAEXXZ 10001f5d f   CellBuffer.obj
 0001:00000f65       ?CanUndo@CellBuffer@@QAE_NXZ 10001f65 f   CellBuffer.obj
 0001:00000f6d       ?StartUndo@CellBuffer@@QAEHXZ 10001f6d f   CellBuffer.obj
 0001:00000f75       ?CanRedo@CellBuffer@@QAE_NXZ 10001f75 f   CellBuffer.obj
 0001:00000f7d       ?StartRedo@CellBuffer@@QAEHXZ 10001f7d f   CellBuffer.obj
 0001:00000f85       ?GetRedoStep@CellBuffer@@QBEABVAction@@XZ 10001f85 f   CellBuffer.obj
 0001:00000f85       ?GetUndoStep@CellBuffer@@QBEABVAction@@XZ 10001f85 f   CellBuffer.obj
 0001:00000f8d       ?ValueAt@?$SplitVector@H@@QBEHH@Z 10001f8d f i CellBuffer.obj
 0001:00000fb7       ?SetValueAt@?$SplitVector@H@@QAEXHH@Z 10001fb7 f i CellBuffer.obj
 0001:00000fe5       ?ValueAt@?$SplitVector@D@@QBEDH@Z 10001fe5 f i CellBuffer.obj
 0001:0000100d       ?SetValueAt@?$SplitVector@D@@QAEXHD@Z 1000200d f i CellBuffer.obj
 0001:00001039       ?GapTo@?$SplitVector@H@@IAEXH@Z 10002039 f i CellBuffer.obj
 0001:00001039       ?GapTo@?$SplitVector@PAVMarkerHandleSet@@@@IAEXH@Z 10002039 f i PerLine.obj
 0001:00001039       ?GapTo@?$SplitVector@PAD@@IAEXH@Z 10002039 f i PerLine.obj
 0001:00001082       ?GapTo@?$SplitVector@D@@IAEXH@Z 10002082 f i CellBuffer.obj
 0001:000010c6       ?ApplyStep@Partitioning@@AAEXH@Z 100020c6 f i CellBuffer.obj
 0001:000010fe       ?SetPartitionStartPosition@Partitioning@@QAEXHH@Z 100020fe f i CellBuffer.obj
 0001:0000112a       ?InsertText@Partitioning@@QAEXHH@Z 1000212a f i CellBuffer.obj
 0001:0000118f       ?PositionFromPartition@Partitioning@@QBEHH@Z 1000218f f i CellBuffer.obj
 0001:000011b9       ?PartitionFromPosition@Partitioning@@QBEHH@Z 100021b9 f i CellBuffer.obj
 0001:00001222       ?InsertText@LineVector@@QAEXHH@Z 10002222 f   CellBuffer.obj
 0001:00001227       ?SetLineStart@LineVector@@QAEXHH@Z 10002227 f   CellBuffer.obj
 0001:0000122c       ?LineFromPosition@LineVector@@QBEHH@Z 1000222c f   CellBuffer.obj
 0001:00001231       ??1Action@@QAE@XZ          10002231 f   CellBuffer.obj
 0001:00001236       ??0UndoHistory@@QAE@XZ     10002236 f   CellBuffer.obj
 0001:000012bf       ??_EAction@@QAEPAXI@Z      100022bf f i CellBuffer.obj
 0001:00001308       ??1UndoHistory@@QAE@XZ     10002308 f   CellBuffer.obj
 0001:0000131d       ?EnsureUndoRoom@UndoHistory@@AAEXXZ 1000231d f   CellBuffer.obj
 0001:000013d8       ?AppendAction@UndoHistory@@QAEXW4actionType@@HPADHAA_N_N@Z 100023d8 f   CellBuffer.obj
 0001:000014f1       ?BeginUndoAction@UndoHistory@@QAEXXZ 100024f1 f   CellBuffer.obj
 0001:0000153d       ?EndUndoAction@UndoHistory@@QAEXXZ 1000253d f   CellBuffer.obj
 0001:00001586       ?CharAt@CellBuffer@@QBEDH@Z 10002586 f   CellBuffer.obj
 0001:0000158b       ?GetCharRange@CellBuffer@@QAEXPADHH@Z 1000258b f   CellBuffer.obj
 0001:000015e5       ?StyleAt@CellBuffer@@QAEDH@Z 100025e5 f   CellBuffer.obj
 0001:000015ed       ?SetStyleAt@CellBuffer@@QAE_NHDD@Z 100025ed f   CellBuffer.obj
 0001:0000162c       ?SetStyleFor@CellBuffer@@QAE_NHHDD@Z 1000262c f   CellBuffer.obj
 0001:0000167c       ?MainHWND@ScintillaWin@@AAEPAUHWND__@@XZ 1000267c f   ScintillaWin.obj
 0001:0000167c       ?Length@CellBuffer@@QBEHXZ 1000267c f   CellBuffer.obj
 0001:00001680       ?Lines@CellBuffer@@QBEHXZ  10002680 f   CellBuffer.obj
 0001:00001688       ?LineStart@CellBuffer@@QBEHH@Z 10002688 f   CellBuffer.obj
 0001:000016b0       ?BeginUndoAction@CellBuffer@@QAEXXZ 100026b0 f   CellBuffer.obj
 0001:000016b8       ?EndUndoAction@CellBuffer@@QAEXXZ 100026b8 f   CellBuffer.obj
 0001:000016c0       ?AddUndoAction@CellBuffer@@QAEXH_N@Z 100026c0 f   CellBuffer.obj
 0001:000016df       ?ReAllocate@?$SplitVector@D@@QAEXH@Z 100026df f i CellBuffer.obj
 0001:00001731       ?DeleteRange@?$SplitVector@D@@QAEXHH@Z 10002731 f i CellBuffer.obj
 0001:0000178d       ?RoomFor@?$SplitVector@D@@IAEXH@Z 1000278d f i CellBuffer.obj
 0001:000017bf       ??0SplitVectorWithRangeAdd@@QAE@H@Z 100027bf f i CellBuffer.obj
 0001:000017f9       ??1Partitioning@@QAE@XZ    100027f9 f i CellBuffer.obj
 0001:00001810       ?RemovePartition@Partitioning@@QAEXH@Z 10002810 f i CellBuffer.obj
 0001:00001839       ?RemoveLine@LineVector@@QAEXH@Z 10002839 f   CellBuffer.obj
 0001:00001858       ?Allocate@CellBuffer@@QAEXH@Z 10002858 f   CellBuffer.obj
 0001:00001874       ?RemoveLine@CellBuffer@@QAEXH@Z 10002874 f   CellBuffer.obj
 0001:0000187c       ?InsertValue@?$SplitVector@D@@QAEXHHD@Z 1000287c f i CellBuffer.obj
 0001:000018ca       ?InsertFromArray@?$SplitVector@D@@QAEXHQBDHH@Z 100028ca f i CellBuffer.obj
 0001:0000191b       ?BufferPointer@?$SplitVector@D@@QAEPADXZ 1000291b f i CellBuffer.obj
 0001:0000193c       ?Allocate@Partitioning@@AAEXH@Z 1000293c f i CellBuffer.obj
 0001:00001994       ?InsertPartition@Partitioning@@QAEXHH@Z 10002994 f i CellBuffer.obj
 0001:000019ba       ?DeleteAll@Partitioning@@QAEXXZ 100029ba f i CellBuffer.obj
 0001:000019da       ??1LineVector@@QAE@XZ      100029da f   CellBuffer.obj
 0001:00001a04       ?Init@LineVector@@QAEXXZ   10002a04 f   CellBuffer.obj
 0001:00001a1d       ?InsertLine@LineVector@@QAEXHH@Z 10002a1d f   CellBuffer.obj
 0001:00001a43       ??1CellBuffer@@QAE@XZ      10002a43 f   CellBuffer.obj
 0001:00001a95       ?BufferPointer@CellBuffer@@QAEPBDXZ 10002a95 f   CellBuffer.obj
 0001:00001a9a       ?InsertLine@CellBuffer@@QAEXHH@Z 10002a9a f   CellBuffer.obj
 0001:00001aa2       ?BasicInsertString@CellBuffer@@QAEXHPBDH@Z 10002aa2 f   CellBuffer.obj
 0001:00001b97       ?BasicDeleteChars@CellBuffer@@QAEXHH@Z 10002b97 f   CellBuffer.obj
 0001:00001cbb       ?PerformUndoStep@CellBuffer@@QAEXXZ 10002cbb f   CellBuffer.obj
 0001:00001cfa       ?PerformRedoStep@CellBuffer@@QAEXXZ 10002cfa f   CellBuffer.obj
 0001:00001d39       ??0LineVector@@QAE@XZ      10002d39 f   CellBuffer.obj
 0001:00001d6b       ??0CellBuffer@@QAE@XZ      10002d6b f   CellBuffer.obj
 0001:00001dce       ?InsertString@CellBuffer@@QAEPBDHPBDHAA_N@Z 10002dce f   CellBuffer.obj
 0001:00001e30       ?DeleteChars@CellBuffer@@QAEPBDHHAA_N@Z 10002e30 f   CellBuffer.obj
 0001:00001ea9       ?SetDefaultCharClasses@CharClassify@@QAEX_N@Z 10002ea9 f   CharClassify.obj
 0001:00001f03       ?SetCharClasses@CharClassify@@QAEXPBEW4cc@1@@Z 10002f03 f   CharClassify.obj
 0001:00001f27       ??0CharClassify@@QAE@XZ    10002f27 f   CharClassify.obj
 0001:00001f35       ??0ContractionState@@QAE@XZ 10002f35 f   ContractionState.obj
 0001:00001f53       ?GetVisible@ContractionState@@QBE_NH@Z 10002f53 f   ContractionState.obj
 0001:00001f82       ?GetHeight@ContractionState@@QBEHH@Z 10002f82 f   ContractionState.obj
 0001:00001f96       ?LinesInDoc@ContractionState@@QBEHXZ 10002f96 f   ContractionState.obj
 0001:00001fac       ?LinesDisplayed@ContractionState@@QBEHXZ 10002fac f   ContractionState.obj
 0001:00001fc5       ?DisplayFromDoc@ContractionState@@QBEHH@Z 10002fc5 f   ContractionState.obj
 0001:00001feb       ?DocFromDisplay@ContractionState@@QBEHH@Z 10002feb f   ContractionState.obj
 0001:0000202a       ?GetExpanded@ContractionState@@QBE_NH@Z 1000302a f   ContractionState.obj
 0001:00002049       ?DeleteLine@ContractionState@@QAEXH@Z 10003049 f   ContractionState.obj
 0001:000020aa       ?DeleteLines@ContractionState@@QAEXHH@Z 100030aa f   ContractionState.obj
 0001:000020c9       ?Clear@ContractionState@@QAEXXZ 100030c9 f   ContractionState.obj
 0001:0000213b       ?InsertLine@ContractionState@@QAEXH@Z 1000313b f   ContractionState.obj
 0001:000021ae       ?InsertLines@ContractionState@@QAEXHH@Z 100031ae f   ContractionState.obj
 0001:000021d4       ?ShowAll@ContractionState@@QAEXXZ 100031d4 f   ContractionState.obj
 0001:000021ea       ??1ContractionState@@UAE@XZ 100031ea f   ContractionState.obj
 0001:000021f5       ?EnsureData@ContractionState@@AAEXXZ 100031f5 f   ContractionState.obj
 0001:000022c2       ?SetVisible@ContractionState@@QAE_NHH_N@Z 100032c2 f   ContractionState.obj
 0001:00002354       ?SetExpanded@ContractionState@@QAE_NH_N@Z 10003354 f   ContractionState.obj
 0001:000023a3       ?SetHeight@ContractionState@@QAE_NHH@Z 100033a3 f   ContractionState.obj
 0001:00002408       ??_GContractionState@@UAEPAXI@Z 10003408 f i ContractionState.obj
 0001:00002408       ??_EContractionState@@UAEPAXI@Z 10003408 f i ContractionState.obj
 0001:00002424       ??0Decoration@@QAE@H@Z     10003424 f   Decoration.obj
 0001:0000243f       ??1Decoration@@QAE@XZ      1000343f f   Decoration.obj
 0001:00002447       ??0DecorationList@@QAE@XZ  10003447 f   Decoration.obj
 0001:00002461       ?DecorationFromIndicator@DecorationList@@AAEPAVDecoration@@H@Z 10003461 f   Decoration.obj
 0001:00002478       ?Create@DecorationList@@AAEPAVDecoration@@HH@Z 10003478 f   Decoration.obj
 0001:000024eb       ?Delete@DecorationList@@AAEXH@Z 100034eb f   Decoration.obj
 0001:00002547       ?SetCurrentIndicator@DecorationList@@QAEXH@Z 10003547 f   Decoration.obj
 0001:00002562       ?SetCurrentValue@DecorationList@@QAEXH@Z 10003562 f   Decoration.obj
 0001:00002571       ?InsertSpace@DecorationList@@QAEXHH@Z 10003571 f   Decoration.obj
 0001:00002597       ?AllOnFor@DecorationList@@QAEHH@Z 10003597 f   Decoration.obj
 0001:000025c7       ?ValueAt@DecorationList@@QAEHHH@Z 100035c7 f   Decoration.obj
 0001:000025e7       ?Start@DecorationList@@QAEHHH@Z 100035e7 f   Decoration.obj
 0001:00002607       ?End@DecorationList@@QAEHHH@Z 10003607 f   Decoration.obj
 0001:00002627       ?Empty@Decoration@@QAE_NXZ 10003627 f   Decoration.obj
 0001:00002638       ??1DecorationList@@QAE@XZ  10003638 f   Decoration.obj
 0001:00002666       ?FillRange@DecorationList@@QAE_NAAHH0@Z 10003666 f   Decoration.obj
 0001:000026c2       ?DeleteAnyEmpty@DecorationList@@AAEXXZ 100036c2 f   Decoration.obj
 0001:000026e7       ?DeleteRange@DecorationList@@QAEXHH@Z 100036e7 f   Decoration.obj
 0001:00002718       ??1PerLine@@UAE@XZ         10003718 f i Document.obj
 0001:0000271f       ??_GPerLine@@UAEPAXI@Z     1000371f f i Document.obj
 0001:0000271f       ??_EPerLine@@UAEPAXI@Z     1000371f f i Document.obj
 0001:0000273c       ??1RegexSearchBase@@UAE@XZ 1000373c f i Document.obj
 0001:00002743       ??_ERegexSearchBase@@UAEPAXI@Z 10003743 f i Document.obj
 0001:00002743       ??_GRegexSearchBase@@UAEPAXI@Z 10003743 f i Document.obj
 0001:00002760       ??0DocModification@@QAE@HHHHPBDH@Z 10003760 f i Document.obj
 0001:0000279a       ??0DocModification@@QAE@HABVAction@@H@Z 1000379a f i Document.obj
 0001:0000284b       ??1Document@@UAE@XZ        1000384b f   Document.obj
 0001:00002907       ?Init@Document@@UAEXXZ     10003907 f   Document.obj
 0001:00002927       ?InsertLine@Document@@UAEXH@Z 10003927 f   Document.obj
 0001:0000294d       ?RemoveLine@Document@@UAEXH@Z 1000394d f   Document.obj
 0001:00002973       ?AddRef@Document@@QAEHXZ   10003973 f   Document.obj
 0001:0000297d       ?Release@Document@@QAEHXZ  1000397d f   Document.obj
 0001:00002990       ?GetMark@Document@@QAEHH@Z 10003990 f   Document.obj
 0001:0000299b       ?LineFromHandle@Document@@QAEHH@Z 1000399b f   Document.obj
 0001:000029a6       ?LineStart@Document@@QBEHH@Z 100039a6 f   Document.obj
 0001:000029ae       ?LineFromPosition@Document@@QBEHH@Z 100039ae f   Document.obj
 0001:000029b6       ?GetLevel@Document@@QAEHH@Z 100039b6 f   Document.obj
 0001:000029c1       ?ClearLevels@Document@@QAEXXZ 100039c1 f   Document.obj
 0001:000029e7       ?GetFoldParent@Document@@QAEHH@Z 100039e7 f   Document.obj
 0001:00002a4d       ?ClampPositionIntoDocument@Document@@QAEHH@Z 10003a4d f   Document.obj
 0001:00002a67       ?IsCrLf@Document@@QAE_NH@Z 10003a67 f   Document.obj
 0001:00002aad       ?LenChar@Document@@QAEHH@Z 10003aad f   Document.obj
 0001:00002bb0       ?InGoodUTF8@Document@@QAE_NHAAH0@Z 10003bb0 f   Document.obj
 0001:00002c72       ?MovePositionOutsideChar@Document@@QAEHHH_N@Z 10003c72 f   Document.obj
 0001:00002dc5       ?ModifiedAt@Document@@QAEXH@Z 10003dc5 f   Document.obj
 0001:00002e2a       ?GetLineIndentPosition@Document@@QBEHH@Z 10003e2a f   Document.obj
 0001:00002e75       ?TransformLineEnds@Document@@SAPADPAHPBDIH@Z 10003e75 f   Document.obj
 0001:00002f00       ?WordCharClass@Document@@AAE?AW4cc@CharClassify@@E@Z 10003f00 f   Document.obj
 0001:00002f25       ?ExtendWordSelect@Document@@QAEHHH_N@Z 10003f25 f   Document.obj
 0001:00002fdf       ?NextWordStart@Document@@QAEHHH@Z 10003fdf f   Document.obj
 0001:000030ba       ?NextWordEnd@Document@@QAEHHH@Z 100040ba f   Document.obj
 0001:000031a8       ?IsWordStartAt@Document@@AAE_NH@Z 100041a8 f   Document.obj
 0001:0000320a       ?IsWordEndAt@Document@@AAE_NH@Z 1000420a f   Document.obj
 0001:00003275       ?IsWordAt@Document@@AAE_NHH@Z 10004275 f   Document.obj
 0001:0000329f       ?SubstituteByPosition@Document@@QAEPBDPBDPAH@Z 1000429f f   Document.obj
 0001:000032b8       ?LinesTotal@Document@@QBEHXZ 100042b8 f   Document.obj
 0001:000032c0       ?SetDefaultCharClasses@Document@@QAEX_N@Z 100042c0 f   Document.obj
 0001:000032c8       ?SetCharClasses@Document@@QAEXPBEW4cc@CharClassify@@@Z 100042c8 f   Document.obj
 0001:000032d0       ?SetStylingBits@Document@@QAEXH@Z 100042d0 f   Document.obj
 0001:000032eb       ?StartStyling@Document@@QAEXHD@Z 100042eb f   Document.obj
 0001:00003302       ?GetLineState@Document@@QAEHH@Z 10004302 f   Document.obj
 0001:0000330d       ?GetMaxLineState@Document@@QAEHXZ 1000430d f   Document.obj
 0001:00003318       ?MarginStyledText@Document@@QAE?AUStyledText@@H@Z 10004318 f   Document.obj
 0001:0000337f       ?MarginSetStyle@Document@@QAEXHH@Z 1000437f f   Document.obj
 0001:0000338a       ?MarginSetStyles@Document@@QAEXHPBE@Z 1000438a f   Document.obj
 0001:00003395       ?AnnotationStyledText@Document@@QAE?AUStyledText@@H@Z 10004395 f   Document.obj
 0001:000033fc       ?AnnotationSetStyle@Document@@QAEXHH@Z 100043fc f   Document.obj
 0001:00003407       ?AnnotationSetStyles@Document@@QAEXHPBE@Z 10004407 f   Document.obj
 0001:00003412       ?AnnotationLines@Document@@QBEHH@Z 10004412 f   Document.obj
 0001:0000341d       ?IncrementStyleClock@Document@@QAEXXZ 1000441d f   Document.obj
 0001:00003439       ?RemoveWatcher@Document@@QAE_NPAVDocWatcher@@PAX@Z 10004439 f   Document.obj
 0001:0000352f       ?NotifyModifyAttempt@Document@@AAEXXZ 1000452f f   Document.obj
 0001:0000355d       ?NotifySavePoint@Document@@AAEX_N@Z 1000455d f   Document.obj
 0001:00003591       ?NotifyModified@Document@@AAEXVDocModification@@@Z 10004591 f   Document.obj
 0001:0000361f       ?IsWordPartSeparator@Document@@QAE_ND@Z 1000461f f   Document.obj
 0001:00003645       ?WordPartLeft@Document@@QAEHH@Z 10004645 f   Document.obj
 0001:00003839       ?WordPartRight@Document@@QAEHH@Z 10004839 f   Document.obj
 0001:000039f1       ?ExtendStyleRange@Document@@QAEHHH_N@Z 100049f1 f   Document.obj
 0001:00003ac5       ?BraceMatch@Document@@QAEHHH@Z 10004ac5 f   Document.obj
 0001:00003b98       ??1DocumentIndexer@@UAE@XZ 10004b98 f i Document.obj
 0001:00003b9f       ??1?$SplitVector@H@@QAE@XZ 10004b9f f i CellBuffer.obj
 0001:00003b9f       ??1?$SplitVector@PAD@@QAE@XZ 10004b9f f i Document.obj
 0001:00003b9f       ??1?$SplitVector@D@@QAE@XZ 10004b9f f i CellBuffer.obj
 0001:00003b9f       ??1?$SplitVector@PAVMarkerHandleSet@@@@QAE@XZ 10004b9f f i Document.obj
 0001:00003baf       ??_EDocument@@UAEPAXI@Z    10004baf f i Document.obj
 0001:00003baf       ??_GDocument@@UAEPAXI@Z    10004baf f i Document.obj
 0001:00003bcb       ?SetSavePoint@Document@@QAEXXZ 10004bcb f   Document.obj
 0001:00003be1       ?AddMark@Document@@QAEHHH@Z 10004be1 f   Document.obj
 0001:00003c50       ?AddMarkSet@Document@@QAEXHH@Z 10004c50 f   Document.obj
 0001:00003cc5       ?DeleteMark@Document@@QAEXHH@Z 10004cc5 f   Document.obj
 0001:00003d1d       ?DeleteMarkFromHandle@Document@@QAEXH@Z 10004d1d f   Document.obj
 0001:00003d76       ?DeleteAllMarks@Document@@QAEXH@Z 10004d76 f   Document.obj
 0001:00003de9       ?LineEnd@Document@@QBEHH@Z 10004de9 f   Document.obj
 0001:00003e39       ?LineEndPosition@Document@@QBEHH@Z 10004e39 f   Document.obj
 0001:00003e51       ?VCHomePosition@Document@@QBEHH@Z 10004e51 f   Document.obj
 0001:00003eb0       ?SetLevel@Document@@QAEHHH@Z 10004eb0 f   Document.obj
 0001:00003f20       ?CheckReadOnly@Document@@QAEXXZ 10004f20 f   Document.obj
 0001:00003f4d       ?DeleteChars@Document@@QAE_NHH@Z 10004f4d f   Document.obj
 0001:0000408c       ?InsertString@Document@@QAE_NHPBDH@Z 1000508c f   Document.obj
 0001:000041a6       ?Undo@Document@@QAEHXZ     100051a6 f   Document.obj
 0001:00004356       ?Redo@Document@@QAEHXZ     10005356 f   Document.obj
 0001:0000450a       ?InsertChar@Document@@QAE_NHD@Z 1000550a f   Document.obj
 0001:00004525       ?InsertCString@Document@@QAE_NHPBD@Z 10005525 f   Document.obj
 0001:00004546       ?ChangeChar@Document@@QAEXHD@Z 10005546 f   Document.obj
 0001:00004567       ?DelChar@Document@@QAEXH@Z 10005567 f   Document.obj
 0001:00004583       ?DelCharBack@Document@@QAEXH@Z 10005583 f   Document.obj
 0001:000045d1       ?GetLineIndentation@Document@@QAEHH@Z 100055d1 f   Document.obj
 0001:00004644       ?SetLineIndentation@Document@@QAEXHH@Z 10005644 f   Document.obj
 0001:000046fa       ?GetColumn@Document@@QAEHH@Z 100056fa f   Document.obj
 0001:00004779       ?FindColumn@Document@@QAEHHH@Z 10005779 f   Document.obj
 0001:000047f7       ?Indent@Document@@QAEX_NHH@Z 100057f7 f   Document.obj
 0001:00004865       ?ConvertLineEnds@Document@@QAEXH@Z 10005865 f   Document.obj
 0001:00004942       ?IsWhiteLine@Document@@QBE_NH@Z 10005942 f   Document.obj
 0001:0000498f       ?ParaUp@Document@@QAEHH@Z  1000598f f   Document.obj
 0001:000049d1       ?ParaDown@Document@@QAEHH@Z 100059d1 f   Document.obj
 0001:00004a35       ?ChangeCase@Document@@QAEXVRange@@_N@Z 10005a35 f   Document.obj
 0001:00004abe       ?SetStyleFor@Document@@QAE_NHD@Z 10005abe f   Document.obj
 0001:00004b42       ?SetStyles@Document@@QAE_NHPBD@Z 10005b42 f   Document.obj
 0001:00004bfd       ?EnsureStyledTo@Document@@QAEXH@Z 10005bfd f   Document.obj
 0001:00004c4b       ?SetLineState@Document@@QAEHHH@Z 10005c4b f   Document.obj
 0001:00004cb2       ?MarginSetText@Document@@QAEXHPBD@Z 10005cb2 f   Document.obj
 0001:00004d09       ?MarginClearAll@Document@@QAEXXZ 10005d09 f   Document.obj
 0001:00004d38       ?AnnotationSetText@Document@@QAEXHPBD@Z 10005d38 f   Document.obj
 0001:00004da5       ?AnnotationClearAll@Document@@QAEXXZ 10005da5 f   Document.obj
 0001:00004dd4       ?DecorationFillRange@Document@@QAEXHHH@Z 10005dd4 f   Document.obj
 0001:00004e2c       ?AddWatcher@Document@@QAE_NPAVDocWatcher@@PAX@Z 10005e2c f   Document.obj
 0001:00004f03       ??0BuiltinRegex@@QAE@PAVCharClassify@@@Z 10005f03 f i Document.obj
 0001:00004f3a       ??1BuiltinRegex@@UAE@XZ    10005f3a f i Document.obj
 0001:00004f7c       ??_EBuiltinRegex@@UAEPAXI@Z 10005f7c f i Document.obj
 0001:00004f7c       ??_GBuiltinRegex@@UAEPAXI@Z 10005f7c f i Document.obj
 0001:00004f98       ?CharAt@DocumentIndexer@@UAEDH@Z 10005f98 f i Document.obj
 0001:00004fb8       ??_GCharacterIndexer@@UAEPAXI@Z 10005fb8 f i Document.obj
 0001:00004fb8       ??_ECharacterIndexer@@UAEPAXI@Z 10005fb8 f i Document.obj
 0001:00004fb8       ??_GDocumentIndexer@@UAEPAXI@Z 10005fb8 f i Document.obj
 0001:00004fb8       ??_EDocumentIndexer@@UAEPAXI@Z 10005fb8 f i Document.obj
 0001:00004fd5       ?FindText@BuiltinRegex@@UAEJPAVDocument@@HHPBD_N22HPAH@Z 10005fd5 f   Document.obj
 0001:000051f3       ?SubstituteByPosition@BuiltinRegex@@UAEPBDPAVDocument@@PBDPAH@Z 100061f3 f   Document.obj
 0001:0000538c       ?CreateRegexSearch@@YAPAVRegexSearchBase@@PAVCharClassify@@@Z 1000638c f   Document.obj
 0001:000053bf       ??0LineMarkers@@QAE@XZ     100063bf f i Document.obj
 0001:000053e3       ??_ELineMarkers@@UAEPAXI@Z 100063e3 f i Document.obj
 0001:000053e3       ??_GLineMarkers@@UAEPAXI@Z 100063e3 f i Document.obj
 0001:000053ff       ??0LineState@@QAE@XZ       100063ff f i Document.obj
 0001:00005420       ??_GLineState@@UAEPAXI@Z   10006420 f i Document.obj
 0001:00005420       ??_ELineState@@UAEPAXI@Z   10006420 f i Document.obj
 0001:0000543c       ??0LineAnnotation@@QAE@XZ  1000643c f i Document.obj
 0001:0000545d       ??_ELineAnnotation@@UAEPAXI@Z 1000645d f i Document.obj
 0001:0000545d       ??_GLineAnnotation@@UAEPAXI@Z 1000645d f i Document.obj
 0001:00005479       ??0LineLevels@@QAE@XZ      10006479 f i Document.obj
 0001:0000549a       ??_ELineLevels@@UAEPAXI@Z  1000649a f i Document.obj
 0001:0000549a       ??_GLineLevels@@UAEPAXI@Z  1000649a f i Document.obj
 0001:000054b6       ?GetLastChild@Document@@QAEHHH@Z 100064b6 f   Document.obj
 0001:00005550       ?FindText@Document@@QAEJHHPBD_N111HPAH@Z 10006550 f   Document.obj
 0001:000057e0       ??0Document@@QAE@XZ        100067e0 f   Document.obj
 0001:00005949       ??AAccessor@@QAEDH@Z       10006949 f i DocumentAccessor.obj
 0001:00005976       ?SafeGetCharAt@Accessor@@QAEDHD@Z 10006976 f i DocumentAccessor.obj
 0001:000059b9       ??_EAccessor@@UAEPAXI@Z    100069b9 f i DocumentAccessor.obj
 0001:000059b9       ??_GAccessor@@UAEPAXI@Z    100069b9 f i DocumentAccessor.obj
 0001:000059d6       ??1DocumentAccessor@@UAE@XZ 100069d6 f   DocumentAccessor.obj
 0001:000059dd       ?InternalIsLeadByte@DocumentAccessor@@MAE_ND@Z 100069dd f   DocumentAccessor.obj
 0001:000059fd       ?Fill@DocumentAccessor@@MAEXH@Z 100069fd f   DocumentAccessor.obj
 0001:00005aa6       ?Match@DocumentAccessor@@UAE_NHPBD@Z 10006aa6 f   DocumentAccessor.obj
 0001:00005ad9       ?StyleAt@DocumentAccessor@@UAEDH@Z 10006ad9 f   DocumentAccessor.obj
 0001:00005afd       ?GetLine@DocumentAccessor@@UAEHH@Z 10006afd f   DocumentAccessor.obj
 0001:00005b08       ?LineStart@DocumentAccessor@@UAEHH@Z 10006b08 f   DocumentAccessor.obj
 0001:00005b13       ?LevelAt@DocumentAccessor@@UAEHH@Z 10006b13 f   DocumentAccessor.obj
 0001:00005b1e       ?Length@DocumentAccessor@@UAEHXZ 10006b1e f   DocumentAccessor.obj
 0001:00005b3e       ?GetLineState@DocumentAccessor@@UAEHH@Z 10006b3e f   DocumentAccessor.obj
 0001:00005b49       ?SetLineState@DocumentAccessor@@UAEHHH@Z 10006b49 f   DocumentAccessor.obj
 0001:00005b54       ?StartAt@DocumentAccessor@@UAEXID@Z 10006b54 f   DocumentAccessor.obj
 0001:00005b82       ?StartSegment@DocumentAccessor@@UAEXI@Z 10006b82 f   DocumentAccessor.obj
 0001:00005b8f       ?ColourTo@DocumentAccessor@@UAEXIH@Z 10006b8f f   DocumentAccessor.obj
 0001:00005c45       ?SetLevel@DocumentAccessor@@UAEXHH@Z 10006c45 f   DocumentAccessor.obj
 0001:00005c50       ?Flush@DocumentAccessor@@UAEXXZ 10006c50 f   DocumentAccessor.obj
 0001:00005c96       ?IndentAmount@DocumentAccessor@@UAEHHPAHP6A_NAAVAccessor@@HH@Z@Z 10006c96 f   DocumentAccessor.obj
 0001:00005db0       ?IndicatorFill@DocumentAccessor@@UAEXHHHH@Z 10006db0 f   DocumentAccessor.obj
 0001:00005de7       ?Contains@PRectangle@@QAE_NV1@@Z 10006de7 f i Editor.obj
 0001:00005e14       ?Intersects@PRectangle@@QAE_NV1@@Z 10006e14 f i Editor.obj
 0001:00005e41       ?Empty@PRectangle@@QAE_NXZ 10006e41 f i Editor.obj
 0001:00005e5b       ?LineLength@StyledText@@QBEII@Z 10006e5b f i Editor.obj
 0001:00005e7c       ?StyleAt@StyledText@@QBEII@Z 10006e7c f i Editor.obj
 0001:00005e95       ??1DocWatcher@@UAE@XZ      10006e95 f i Editor.obj
 0001:00005e9c       ??_EDocWatcher@@UAEPAXI@Z  10006e9c f i Editor.obj
 0001:00005e9c       ??_GDocWatcher@@UAEPAXI@Z  10006e9c f i Editor.obj
 0001:00005eb9       ?Set@SelectionText@@QAEXPADHHH_N1@Z 10006eb9 f i Editor.obj
 0001:00005ef3       ?Copy@SelectionText@@QAEXPBDHHH_N1@Z 10006ef3 f i Editor.obj
 0001:00005f4f       ??1AutoSurface@@QAE@XZ     10006f4f f i Editor.obj
 0001:00005f9f       ??0Caret@@QAE@XZ           10006f9f f   Editor.obj
 0001:00005fb0       ??0Timer@@QAE@XZ           10006fb0 f   Editor.obj
 0001:00005fbd       ??0Idler@@QAE@XZ           10006fbd f   Editor.obj
 0001:00005fc7       ?Finalise@Editor@@MAEXXZ   10006fc7 f   Editor.obj
 0001:00005fdc       ?DropGraphics@Editor@@IAEXXZ 10006fdc f   Editor.obj
 0001:00006017       ?RefreshColourPalette@Editor@@MAEXAAVPalette@@_N@Z 10007017 f   Editor.obj
 0001:0000601f       ?GetClientRectangle@Editor@@MAE?AVPRectangle@@XZ 1000701f f   Editor.obj
 0001:00006032       ?GetTextRectangle@Editor@@IAE?AVPRectangle@@XZ 10007032 f   Editor.obj
 0001:00006058       ?LinesOnScreen@Editor@@IAEHXZ 10007058 f   Editor.obj
 0001:0000607c       ?LinesToScroll@Editor@@IAEHXZ 1000707c f   Editor.obj
 0001:0000608b       ?MaxScrollPos@Editor@@IAEHXZ 1000708b f   Editor.obj
 0001:000060be       ?ControlCharacterString@@YAPBDE@Z 100070be f   Editor.obj
 0001:000061be       ??1AutoLineLayout@@QAE@XZ  100071be f i Editor.obj
 0001:000061d1       ?Set@AutoLineLayout@@QAEXPAVLineLayout@@@Z 100071d1 f i Editor.obj
 0001:000061e9       ?LineFromLocation@Editor@@IAEHVPoint@@@Z 100071e9 f   Editor.obj
 0001:00006209       ?SetTopLine@Editor@@IAEXH@Z 10007209 f   Editor.obj
 0001:00006238       ?AbandonPaint@Editor@@IAE_NXZ 10007238 f   Editor.obj
 0001:0000625b       ?RedrawRect@Editor@@IAEXVPRectangle@@@Z 1000725b f   Editor.obj
 0001:000062c8       ?Redraw@Editor@@IAEXXZ     100072c8 f   Editor.obj
 0001:000062f7       ?RectangleFromRange@Editor@@IAE?AVPRectangle@@HH@Z 100072f7 f   Editor.obj
 0001:000063da       ?InvalidateRange@Editor@@IAEXHH@Z 100073da f   Editor.obj
 0001:0000640d       ?CurrentPosition@Editor@@IAEHXZ 1000740d f   Editor.obj
 0001:00006414       ?SelectionEmpty@Editor@@IAE_NXZ 10007414 f   Editor.obj
 0001:00006426       ?SelectionStart@Editor@@IAEHXZ 10007426 f   Editor.obj
 0001:0000643a       ?SelectionEnd@Editor@@IAEHXZ 1000743a f   Editor.obj
 0001:0000644e       ?InvalidateSelection@Editor@@IAEXHH_N@Z 1000744e f   Editor.obj
 0001:000064bf       ?RangeContainsProtected@Editor@@IBE_NHH@Z 100074bf f   Editor.obj
 0001:0000652f       ?MovePositionOutsideChar@Editor@@IBEHHH_N@Z 1000752f f   Editor.obj
 0001:0000663b       ?MovePositionSoVisible@Editor@@IAEHHH@Z 1000763b f   Editor.obj
 0001:000066e4       ?ScrollText@Editor@@MAEXH@Z 100076e4 f   Editor.obj
 0001:000066ec       ?HorizontalScrollTo@Editor@@IAEXH@Z 100076ec f   Editor.obj
 0001:00006740       ?InvalidateCaret@Editor@@IAEXXZ 10007740 f   Editor.obj
 0001:0000676c       ?UpdateSystemCaret@Editor@@MAEXXZ 1000776c f   Editor.obj
 0001:0000676c       ?ClaimSelection@ScintillaWin@@EAEXXZ 1000776c f   ScintillaWin.obj
 0001:0000676c       ?StartDrag@Editor@@MAEXXZ  1000776c f   Editor.obj
 0001:0000676c       __fpclear                  1000776c f   LIBCMT:fpinit.obj
 0001:0000676c       ?ReconfigureScrollBars@Editor@@MAEXXZ 1000776c f   Editor.obj
 0001:0000676c       ?DebugPrintf@Platform@@SAXPBDZZ 1000776c f   PlatWin.obj
 0001:0000676c       __initp_misc_winxfltr      1000776c f   LIBCMT:winxfltr.obj
 0001:0000676d       ?NeedWrapping@Editor@@IAEXHH@Z 1000776d f   Editor.obj
 0001:000067fa       ?LinesJoin@Editor@@IAEXXZ  100077fa f   Editor.obj
 0001:000068b3       ?StringFromEOLMode@Editor@@KAPBDH@Z 100078b3 f   Editor.obj
 0001:000068d2       ?SubstituteMarkerIfEmpty@Editor@@IAEHHH@Z 100078d2 f   Editor.obj
 0001:000068ee       ?ValidStyledText@@YA_NAAVViewStyle@@IABUStyledText@@@Z 100078ee f   Editor.obj
 0001:00006a21       ?DrawStyledText@@YAXPAVSurface@@AAVViewStyle@@HVPRectangle@@HABUStyledText@@II@Z 10007a21 f   Editor.obj
 0001:00006b5b       ?PaintSelMargin@Editor@@IAEXPAVSurface@@AAVPRectangle@@@Z 10007b5b f   Editor.obj
 0001:00007141       ?DrawTabArrow@@YAXPAVSurface@@VPRectangle@@H@Z 10008141 f   Editor.obj
 0001:000071ca       ?RetrieveLineLayout@Editor@@IAEPAVLineLayout@@H@Z 100081ca f   Editor.obj
 0001:00007252       ?BadUTF@@YA_NPBDHAAH@Z     10008252 f   Editor.obj
 0001:00007306       ?SelectionBackground@Editor@@IAE?AVColourAllocated@@AAVViewStyle@@@Z 10008306 f   Editor.obj
 0001:0000732a       ?TextBackground@Editor@@IAE?AVColourAllocated@@AAVViewStyle@@_NV2@11HHPAVLineLayout@@@Z 1000832a f   Editor.obj
 0001:000073cc       ?DrawIndentGuide@Editor@@IAEXPAVSurface@@HHHVPRectangle@@_N@Z 100083cc f   Editor.obj
 0001:00007436       ?MoveTo@Relative@?1??DrawWrapMarker@Editor@@IAEXPAVSurface@@VPRectangle@@_NVColourAllocated@@@Z@QAEXHH@Z 10008436 f   Editor.obj
 0001:0000745c       ?LineTo@Relative@?1??DrawWrapMarker@Editor@@IAEXPAVSurface@@VPRectangle@@_NVColourAllocated@@@Z@QAEXHH@Z 1000845c f   Editor.obj
 0001:000074b5       ?DrawTextBlob@@YAXPAVSurface@@AAVViewStyle@@VPRectangle@@PBDVColourAllocated@@4_N@Z 100084b5 f   Editor.obj
 0001:000075a9       ?DrawIndicators@Editor@@IAEXPAVSurface@@AAVViewStyle@@HHVPRectangle@@PAVLineLayout@@HH_N@Z 100085a9 f   Editor.obj
 0001:000077c5       ?DrawAnnotation@Editor@@IAEXPAVSurface@@AAVViewStyle@@HHVPRectangle@@PAVLineLayout@@H@Z 100087c5 f   Editor.obj
 0001:00007a26       ?DrawBlockCaret@Editor@@IAEXPAVSurface@@AAVViewStyle@@PAVLineLayout@@HHHHVPRectangle@@@Z 10008a26 f   Editor.obj
 0001:00007b83       ?AddChar@Editor@@IAEXD@Z   10008b83 f   Editor.obj
 0001:00007ba1       ?ClearDocumentStyle@Editor@@IAEXXZ 10008ba1 f   Editor.obj
 0001:00007c38       ?NotifyFocus@Editor@@MAEX_N@Z 10008c38 f   Editor.obj
 0001:00007c3b       ?NotifyStyleToNeeded@Editor@@MAEXH@Z 10008c3b f   Editor.obj
 0001:00007c7f       ?NotifyStyleNeeded@Editor@@MAEXPAVDocument@@PAXH@Z 10008c7f f   Editor.obj
 0001:00007c8b       ?NotifySavePoint@Editor@@IAEX_N@Z 10008c8b f   Editor.obj
 0001:00007cd1       ?NotifyModifyAttempt@Editor@@IAEXXZ 10008cd1 f   Editor.obj
 0001:00007d0d       ?NotifyHotSpotDoubleClicked@Editor@@IAEXH_N00@Z 10008d0d f   Editor.obj
 0001:00007d74       ?NotifyHotSpotClicked@Editor@@IAEXH_N00@Z 10008d74 f   Editor.obj
 0001:00007ddb       ?NotifyUpdateUI@Editor@@IAEXXZ 10008ddb f   Editor.obj
 0001:00007e17       ?NotifyPainted@Editor@@IAEXXZ 10008e17 f   Editor.obj
 0001:00007e53       ?NotifyIndicatorClick@Editor@@IAEX_NH000@Z 10008e53 f   Editor.obj
 0001:00007efc       ?NotifyMarginClick@Editor@@IAE_NVPoint@@_N11@Z 10008efc f   Editor.obj
 0001:00007fc4       ?NotifyNeedShown@Editor@@IAEXHH@Z 10008fc4 f   Editor.obj
 0001:0000800e       ?NotifyZoom@Editor@@IAEXXZ 1000900e f   Editor.obj
 0001:0000804a       ?NotifyModifyAttempt@Editor@@MAEXPAVDocument@@PAX@Z 1000904a f   Editor.obj
 0001:00008052       ?NotifySavePoint@Editor@@MAEXPAVDocument@@PAX_N@Z 10009052 f   Editor.obj
 0001:0000805e       ?NotifyDeleted@Editor@@MAEXPAVDocument@@PAX@Z 1000905e f   Editor.obj
 0001:00008061       ?NotifyMacroRecord@Editor@@IAEXIKJ@Z 10009061 f   Editor.obj
 0001:00008212       ?CancelModes@Editor@@MAEXXZ 10009212 f   Editor.obj
 0001:0000821a       ?KeyDefault@Editor@@MAEHHH@Z 1000921a f   Editor.obj
 0001:0000821f       ?FindText@Editor@@IAEJKJ@Z 1000921f f   Editor.obj
 0001:00008285       ?SearchAnchor@Editor@@IAEXXZ 10009285 f   Editor.obj
 0001:00008295       ?SearchInTarget@Editor@@IAEJPBDH@Z 10009295 f   Editor.obj
 0001:0000832d       ?CopyRange@Editor@@IAEPADHH@Z 1000932d f   Editor.obj
 0001:00008395       ?CopySelectionFromRange@Editor@@IAEXPAVSelectionText@@_NHH@Z 10009395 f   Editor.obj
 0001:000084d0       ?SetDragPosition@Editor@@IAEXH@Z 100094d0 f   Editor.obj
 0001:00008522       ?DisplayCursor@Editor@@MAEXW4Cursor@Window@@@Z 10009522 f   Editor.obj
 0001:0000853e       ?DragThreshold@Editor@@MAE_NVPoint@@0@Z 1000953e f   Editor.obj
 0001:00008565       ?PointInSelMargin@Editor@@IAE_NVPoint@@@Z 10009565 f   Editor.obj
 0001:000085a8       ?PositionIsHotspot@Editor@@IAE_NH@Z 100095a8 f   Editor.obj
 0001:000085dc       ?GetHotSpotRange@Editor@@IAEXAAH0@Z 100095dc f   Editor.obj
 0001:000085f7       ?PaintContains@Editor@@MAE_NVPRectangle@@@Z 100095f7 f   Editor.obj
 0001:0000862b       ?PaintContainsMargin@Editor@@IAE_NXZ 1000962b f   Editor.obj
 0001:00008665       ?CheckForChangeOutsidePaint@Editor@@IAEXVRange@@@Z 10009665 f   Editor.obj
 0001:000086e6       ?SetBraceHighlight@Editor@@IAEXHHH@Z 100096e6 f   Editor.obj
 0001:00008785       ?SetAnnotationHeights@Editor@@IAEXHH@Z 10009785 f   Editor.obj
 0001:000087c6       ?SetAnnotationVisible@Editor@@IAEXH@Z 100097c6 f   Editor.obj
 0001:0000886d       ?Expand@Editor@@IAEXAAH_N@Z 1000986d f   Editor.obj
 0001:000088e6       ?ReplaceTarget@Editor@@IAEH_NPBDH@Z 100098e6 f   Editor.obj
 0001:0000899d       ?IsUnicodeMode@Editor@@QBE_NXZ 1000999d f   Editor.obj
 0001:000089ba       ?CodePage@Editor@@IBEHXZ   100099ba f   Editor.obj
 0001:000089d8       ?StyleGetMessage@Editor@@IAEJIKJ@Z 100099d8 f   Editor.obj
 0001:00008b28       ?Free@SelectionText@@QAEXXZ 10009b28 f i Editor.obj
 0001:00008b48       ??0AutoSurface@@QAE@PAVEditor@@@Z 10009b48 f i Editor.obj
 0001:00008ba7       ??0AutoSurface@@QAE@PAXPAVEditor@@@Z 10009ba7 f i Editor.obj
 0001:00008c0a       ??0SelectionLineIterator@@QAE@PAVEditor@@_N@Z 10009c0a f i Editor.obj
 0001:00008ca4       ?RedrawSelMargin@Editor@@IAEXH@Z 10009ca4 f   Editor.obj
 0001:00008d26       ?ShowCaretAtCurrentPosition@Editor@@IAEXXZ 10009d26 f   Editor.obj
 0001:00008d61       ?DropCaret@Editor@@IAEXXZ  10009d61 f   Editor.obj
 0001:00008d6d       ?LayoutLine@Editor@@IAEXHPAVSurface@@AAVViewStyle@@PAVLineLayout@@H@Z 10009d6d f   Editor.obj
 0001:00009596       ?DrawWrapMarker@Editor@@IAEXPAVSurface@@VPRectangle@@_NVColourAllocated@@@Z 1000a596 f   Editor.obj
 0001:0000967c       ?DrawEOL@Editor@@IAEXPAVSurface@@AAVViewStyle@@VPRectangle@@PAVLineLayout@@HHHHH_NVColourAllocated@@45@Z 1000a67c f   Editor.obj
 0001:0000996c       ?DrawLine@Editor@@IAEXPAVSurface@@AAVViewStyle@@HHHVPRectangle@@PAVLineLayout@@H@Z 1000a96c f   Editor.obj
 0001:0000aa57       ?RefreshPixMaps@Editor@@IAEXPAVSurface@@@Z 1000ba57 f   Editor.obj
 0001:0000aca4       ?InvertedLight@@YA?AVColourDesired@@V1@@Z 1000bca4 f   Editor.obj
 0001:0000ad3e       ?FormatRange@Editor@@IAEJ_NPAUSci_RangeToFormat@@@Z 1000bd3e f   Editor.obj
 0001:0000b35b       ?DelChar@Editor@@IAEXXZ    1000c35b f   Editor.obj
 0001:0000b38d       ?NotifyChar@Editor@@IAEXH@Z 1000c38d f   Editor.obj
 0001:0000b3f6       ?CheckModificationForWrap@Editor@@IAEXVDocModification@@@Z 1000c3f6 f   Editor.obj
 0001:0000b471       ?Duplicate@Editor@@IAEX_N@Z 1000c471 f   Editor.obj
 0001:0000b52c       ?SetFocusState@Editor@@IAEX_N@Z 1000c52c f   Editor.obj
 0001:0000b561       ?WrapCount@Editor@@IAEHH@Z 1000c561 f   Editor.obj
 0001:0000b5fe       ??1SelectionText@@QAE@XZ   1000c5fe f i Editor.obj
 0001:0000b603       ??0Editor@@IAE@XZ          1000c603 f   Editor.obj
 0001:0000b981       ?GetCtrlID@Editor@@MAEHXZ  1000c981 f i Editor.obj
 0001:0000b988       ?SetIdle@Editor@@MAE_N_N@Z 1000c988 f i Editor.obj
 0001:0000b98d       ?ValidCodePage@Editor@@MBE_NH@Z 1000c98d f i Editor.obj
 0001:0000b992       ??1Editor@@MAE@XZ          1000c992 f   Editor.obj
 0001:0000ba9f       ?PositionFromLocation@Editor@@IAEHVPoint@@_N1@Z 1000ca9f f   Editor.obj
 0001:0000bd03       ?ScrollTo@Editor@@IAEXH_N@Z 1000cd03 f   Editor.obj
 0001:0000bd71       ?DisplayFromPosition@Editor@@IAEHH@Z 1000cd71 f   Editor.obj
 0001:0000be43       ?WrapOneLine@Editor@@IAE_NPAVSurface@@H@Z 1000ce43 f   Editor.obj
 0001:0000becf       ?LinesSplit@Editor@@IAEXH@Z 1000cecf f   Editor.obj
 0001:0000c05c       ?NotifyDoubleClick@Editor@@MAEXVPoint@@_N11@Z 1000d05c f   Editor.obj
 0001:0000c0e3       ?NotifyDwelling@Editor@@IAEXVPoint@@_N@Z 1000d0e3 f   Editor.obj
 0001:0000c147       ?CopyRangeToClipboard@Editor@@IAEXHH@Z 1000d147 f   Editor.obj
 0001:0000c1d8       ?CopyText@Editor@@IAEXHPBD@Z 1000d1d8 f   Editor.obj
 0001:0000c243       ?DwellEnd@Editor@@IAEX_N@Z 1000d243 f   Editor.obj
 0001:0000c28f       ?PointIsHotspot@Editor@@IAE_NVPoint@@@Z 1000d28f f   Editor.obj
 0001:0000c2b8       ?SetHotSpotRange@Editor@@IAEXPAVPoint@@@Z 1000d2b8 f   Editor.obj
 0001:0000c36e       ??_EEditor@@MAEPAXI@Z      1000d36e f i Editor.obj
 0001:0000c36e       ??_GEditor@@MAEPAXI@Z      1000d36e f i Editor.obj
 0001:0000c38a       ?SetScrollBars@Editor@@IAEXXZ 1000d38a f   Editor.obj
 0001:0000c418       ?ChangeSize@Editor@@IAEXXZ 1000d418 f   Editor.obj
 0001:0000c478       ?NotifyModified@Editor@@MAEXPAVDocument@@VDocModification@@PAX@Z 1000d478 f   Editor.obj
 0001:0000c85d       ?KeyDown@Editor@@IAEHH_N00PA_N@Z 1000d85d f   Editor.obj
 0001:0000c8d6       ?SetDocPointer@Editor@@IAEXPAVDocument@@@Z 1000d8d6 f   Editor.obj
 0001:0000c9d7       ?RefreshStyleData@Editor@@IAEXXZ 1000d9d7 f   Editor.obj
 0001:0000caae       ?LocationFromPosition@Editor@@IAE?AVPoint@@H@Z 1000daae f   Editor.obj
 0001:0000cc65       ?XFromPosition@Editor@@IAEHH@Z 1000dc65 f   Editor.obj
 0001:0000cc8d       ?PositionFromLineX@Editor@@IAEHHH@Z 1000dc8d f   Editor.obj
 0001:0000cddf       ?SetRectangularRange@Editor@@IAEXXZ 1000dddf f   Editor.obj
 0001:0000ce11       ?SetSelection@Editor@@IAEXHH@Z 1000de11 f   Editor.obj
 0001:0000ce75       ?SetSelection@Editor@@IAEXH@Z 1000de75 f   Editor.obj
 0001:0000cebb       ?SetEmptySelection@Editor@@IAEXH@Z 1000debb f   Editor.obj
 0001:0000cedc       ?SetLastXChosen@Editor@@IAEXXZ 1000dedc f   Editor.obj
 0001:0000ceff       ?EnsureCaretVisible@Editor@@IAEX_N00@Z 1000deff f   Editor.obj
 0001:0000d34f       ?WrapLines@Editor@@IAE_N_NH@Z 1000e34f f   Editor.obj
 0001:0000d603       ?TextWidth@Editor@@IAEHHPBD@Z 1000e603 f   Editor.obj
 0001:0000d66b       ?SelectAll@Editor@@IAEXXZ  1000e66b f   Editor.obj
 0001:0000d68e       ?Undo@Editor@@IAEXXZ       1000e68e f   Editor.obj
 0001:0000d6d0       ?Redo@Editor@@IAEXXZ       1000e6d0 f   Editor.obj
 0001:0000d70b       ?StartEndDisplayLine@Editor@@IAEHH_N@Z 1000e70b f   Editor.obj
 0001:0000d856       ?SearchText@Editor@@IAEJIKJ@Z 1000e856 f   Editor.obj
 0001:0000d90a       ?GoToLine@Editor@@IAEXH@Z  1000e90a f   Editor.obj
 0001:0000d95f       ?LineSelection@Editor@@IAEXHH@Z 1000e95f f   Editor.obj
 0001:0000d9b3       ?ButtonUp@Editor@@IAEXVPoint@@I_N@Z 1000e9b3 f   Editor.obj
 0001:0000dbbd       ?Idle@Editor@@IAE_NXZ      1000ebbd f   Editor.obj
 0001:0000dbf2       ?EnsureLineVisible@Editor@@IAEXH_N@Z 1000ebf2 f   Editor.obj
 0001:0000dd80       ?AddStyledText@Editor@@IAEXPADH@Z 1000ed80 f   Editor.obj
 0001:0000de1d       ?InvalidateStyleData@Editor@@IAEXXZ 1000ee1d f   Editor.obj
 0001:0000de7d       ?InvalidateStyleRedraw@Editor@@IAEXXZ 1000ee7d f   Editor.obj
 0001:0000de9b       ?SetAt@SelectionLineIterator@@QAEXH@Z 1000ee9b f i Editor.obj
 0001:0000df2c       ?Iterate@SelectionLineIterator@@QAE_NXZ 1000ef2c f i Editor.obj
 0001:0000df50       ?SelectionContainsProtected@Editor@@IAE_NXZ 1000ef50 f   Editor.obj
 0001:0000dfae       ?MovePositionTo@Editor@@IAEHHW4selTypes@1@_N@Z 1000efae f   Editor.obj
 0001:0000e021       ?MoveCaretInsideView@Editor@@IAEX_N@Z 1000f021 f   Editor.obj
 0001:0000e0b8       ?Paint@Editor@@IAEXPAVSurface@@VPRectangle@@@Z 1000f0b8 f   Editor.obj
 0001:0000e99d       ?ClearSelection@Editor@@IAEXXZ 1000f99d f   Editor.obj
 0001:0000ea63       ?ClearAll@Editor@@IAEXXZ   1000fa63 f   Editor.obj
 0001:0000eb09       ?Cut@Editor@@IAEXXZ        1000fb09 f   Editor.obj
 0001:0000eb46       ?PasteRectangular@Editor@@IAEXHPBDH@Z 1000fb46 f   Editor.obj
 0001:0000ece6       ?CanPaste@Editor@@MAE_NXZ  1000fce6 f   Editor.obj
 0001:0000ed0f       ?Clear@Editor@@IAEXXZ      1000fd0f f   Editor.obj
 0001:0000ed4d       ?DelCharBack@Editor@@IAEX_N@Z 1000fd4d f   Editor.obj
 0001:0000ee87       ?PageMove@Editor@@IAEXHW4selTypes@1@_N@Z 1000fe87 f   Editor.obj
 0001:0000efd4       ?ChangeCaseOfSelection@Editor@@IAEX_N@Z 1000ffd4 f   Editor.obj
 0001:0000f07c       ?LineTranspose@Editor@@IAEXXZ 1001007c f   Editor.obj
 0001:0000f18f       ?NewLine@Editor@@IAEXXZ    1001018f f   Editor.obj
 0001:0000f21b       ?CursorUpOrDown@Editor@@IAEXHW4selTypes@1@@Z 1001021b f   Editor.obj
 0001:0000f337       ?ParaUpOrDown@Editor@@IAEXHW4selTypes@1@@Z 10010337 f   Editor.obj
 0001:0000f3e6       ?Indent@Editor@@IAEX_N@Z   100103e6 f   Editor.obj
 0001:0000f6d6       ?CopySelectionRange@Editor@@IAEXPAVSelectionText@@_N@Z 100106d6 f   Editor.obj
 0001:0000f82f       ?PositionInSelection@Editor@@IAEHH@Z 1001082f f   Editor.obj
 0001:0000f8af       ?PointInSelection@Editor@@IAE_NVPoint@@@Z 100108af f   Editor.obj
 0001:0000f959       ?ButtonDown@Editor@@MAEXVPoint@@I_N11@Z 10010959 f   Editor.obj
 0001:0000fd1a       ?ButtonMove@Editor@@IAEXVPoint@@@Z 10010d1a f   Editor.obj
 0001:0000ffcf       ?Tick@Editor@@IAEXXZ       10010fcf f   Editor.obj
 0001:0001009e       ?ToggleContraction@Editor@@IAEXH@Z 1001109e f   Editor.obj
 0001:000101a1       ?StyleSetMessage@Editor@@IAEXIKJ@Z 100111a1 f   Editor.obj
 0001:00010329       ?WndProc@Editor@@UAEJIKJ@Z 10011329 f   Editor.obj
 0001:00012a92       ?AddCharUTF@Editor@@MAEXPADI_N@Z 10013a92 f   Editor.obj
 0001:00012c82       ?CopyAllowLine@Editor@@MAEXXZ 10013c82 f   Editor.obj
 0001:00012ccf       ?KeyCommand@Editor@@MAEHI@Z 10013ccf f   Editor.obj
 0001:00013636       ?DropAt@Editor@@IAEXHPBD_N1@Z 10014636 f   Editor.obj
 0001:0001379f       ??1SContainer@@IAE@XZ      1001479f f i ExternalLexer.obj
 0001:000137b3       ??1SString@@QAE@XZ         100147b3 f i ExternalLexer.obj
 0001:000137bc       ??_ELexerModule@@UAEPAXI@Z 100147bc f i ExternalLexer.obj
 0001:000137bc       ??_EExternalLexerModule@@UAEPAXI@Z 100147bc f i ExternalLexer.obj
 0001:000137bc       ??_GExternalLexerModule@@UAEPAXI@Z 100147bc f i ExternalLexer.obj
 0001:000137bc       ??_GLexerModule@@UAEPAXI@Z 100147bc f i ExternalLexer.obj
 0001:000137d9       ??0ExternalLexerModule@@QAE@HP6AXIHHQAPAVWordList@@AAVAccessor@@@ZPBD2@Z 100147d9 f i ExternalLexer.obj
 0001:00013816       ?WordListsToStrings@@YAPAPADQAPAVWordList@@@Z 10014816 f   ExternalLexer.obj
 0001:0001391c       ?DeleteWLStrings@@YAXQAPAD@Z 1001491c f   ExternalLexer.obj
 0001:00013941       ?Lex@ExternalLexerModule@@UBEXIHHQAPAVWordList@@AAVAccessor@@@Z 10014941 f   ExternalLexer.obj
 0001:00013995       ?Fold@ExternalLexerModule@@UBEXIHHQAPAVWordList@@AAVAccessor@@@Z 10014995 f   ExternalLexer.obj
 0001:000139e9       ?SetExternal@ExternalLexerModule@@UAEXP6GXIIHHQAPADPAXPAD@Z3H@Z 100149e9 f   ExternalLexer.obj
 0001:00013a01       ??0LexerLibrary@@QAE@PBD@Z 10014a01 f   ExternalLexer.obj
 0001:00013b5a       ?Release@LexerLibrary@@QAEXXZ 10014b5a f   ExternalLexer.obj
 0001:00013b8e       ??0LexerManager@@AAE@XZ    10014b8e f   ExternalLexer.obj
 0001:00013b98       ?LoadLexerLibrary@LexerManager@@AAEXPBD@Z 10014b98 f   ExternalLexer.obj
 0001:00013be1       ??1LexerLibrary@@QAE@XZ    10014be1 f   ExternalLexer.obj
 0001:00013c1d       ?GetInstance@LexerManager@@SAPAV1@XZ 10014c1d f   ExternalLexer.obj
 0001:00013c43       ?Load@LexerManager@@QAEXPBD@Z 10014c43 f   ExternalLexer.obj
 0001:00013c48       ?Clear@LexerManager@@QAEXXZ 10014c48 f   ExternalLexer.obj
 0001:00013c73       ??1LexerManager@@QAE@XZ    10014c73 f   ExternalLexer.obj
 0001:00013c78       ?DeleteInstance@LexerManager@@SAXXZ 10014c78 f   ExternalLexer.obj
 0001:00013c9a       ??1LMMinder@@QAE@XZ        10014c9a f   ExternalLexer.obj
 0001:00013c9f       ?Draw@Indicator@@QAEXPAVSurface@@ABVPRectangle@@1@Z 10014c9f f   Indicator.obj
 0001:00013ecf       ?FreeWords@LineToItem@@AAEXXZ 10014ecf f   PlatWin.obj
 0001:00013ecf       ?Clear@KeyMap@@QAEXXZ      10014ecf f   KeyMap.obj
 0001:00013ee6       ?AssignCmdKey@KeyMap@@QAEXHHI@Z 10014ee6 f   KeyMap.obj
 0001:00013fac       ?Find@KeyMap@@QAEIHH@Z     10014fac f   KeyMap.obj
 0001:00013fe4       ??0KeyMap@@QAE@XZ          10014fe4 f   KeyMap.obj
 0001:00014025       ??1KeyMap@@QAE@XZ          10015025 f   KeyMap.obj
 0001:0001402a       ??0LexerModule@@QAE@HP6AXIHHQAPAVWordList@@AAVAccessor@@@ZPBD2QBQBDH@Z 1001502a f   KeyWords.obj
 0001:00014083       ?GetStyleBitsNeeded@LexerModule@@QBEHXZ 10015083 f   KeyWords.obj
 0001:00014087       ?Find@LexerModule@@SAPBV1@H@Z 10015087 f   KeyWords.obj
 0001:0001409f       ?Find@LexerModule@@SAPBV1@PBD@Z 1001509f f   KeyWords.obj
 0001:000140d5       ?Lex@LexerModule@@UBEXIHHQAPAVWordList@@AAVAccessor@@@Z 100150d5 f   KeyWords.obj
 0001:000140f7       ?Fold@LexerModule@@UBEXIHHQAPAVWordList@@AAVAccessor@@@Z 100150f7 f   KeyWords.obj
 0001:00014154       ?Scintilla_LinkLexers@@YAHXZ 10015154 f   KeyWords.obj
 0001:00014393       ?IsLeadByte@Accessor@@QAE_ND@Z 10015393 f i LexAbaqus.obj
 0001:000143b2       ?GetNextChar@StyleContext@@AAEXI@Z 100153b2 f i LexAbaqus.obj
 0001:0001441d       ??0StyleContext@@QAE@IIHAAVAccessor@@D@Z 1001541d f i LexAbaqus.obj
 0001:000144ab       ?Forward@StyleContext@@QAEXXZ 100154ab f i LexAbaqus.obj
 0001:000144fe       ?SetState@StyleContext@@QAEXH@Z 100154fe f i LexAbaqus.obj
 0001:00014d14       ?ForwardSetState@StyleContext@@QAEXH@Z 10015d14 f i LexAda.obj
 0001:00014d36       ?Match@StyleContext@@QAE_NDD@Z 10015d36 f i LexAda.obj
 0001:00014d54       ?IsASpace@@YA_NI@Z         10015d54 f i LexAda.obj
 0001:00014d6e       ??ASString@@QBEDI@Z        10015d6e f i LexAda.obj
 0001:00016116       ?isoperator@@YA_ND@Z       10017116 f i LexASY.obj
 0001:000161ae       ??1CharacterSet@@QAE@XZ    100171ae f i LexASY.obj
 0001:000161c3       ?AddString@CharacterSet@@QAEXPBD@Z 100171c3 f i LexASY.obj
 0001:000161e3       ?Contains@CharacterSet@@QBE_NH@Z 100171e3 f i LexASY.obj
 0001:00016558       ??0CharacterSet@@QAE@W4setBase@0@PBDH_N@Z 10017558 f i LexASY.obj
 0001:000168dc       ?isspacechar@@YA_NE@Z      100178dc f i LexAU3.obj
 0001:00017d16       ?iswordchar@@YA_ND@Z       10018d16 f i LexAVE.obj
 0001:00017d41       ?IsAWordStart@@YA_NH@Z     10018d41 f i LexAVE.obj
 0001:00017d67       ?isAveOperator@@YA_ND@Z    10018d67 f i LexAVE.obj
 0001:000182fa       ?MatchIgnoreCase@StyleContext@@QAE_NPBD@Z 100192fa f i LexBaan.obj
 0001:000187de       ?LengthCurrent@StyleContext@@QAEHXZ 100197de f i LexBash.obj
 0001:000187f1       ?GetRelative@StyleContext@@QAEHH@Z 100197f1 f i LexBash.obj
 0001:00018808       ?IsADigit@@YA_NII@Z        10019808 f i LexBash.obj
 0001:0001884e       ??0HereDocCls@?1??ColouriseBashDoc@@YAXIHHQAPAVWordList@@AAVAccessor@@@Z@QAE@XZ 1001984e f   LexBash.obj
 0001:00018877       ??1HereDocCls@?1??ColourisePerlDoc@@YAXIHHQAPAVWordList@@AAVAccessor@@@Z@QAE@XZ 10019877 f   LexPerl.obj
 0001:00018877       ??1HereDocCls@?1??ColouriseBashDoc@@YAXIHHQAPAVWordList@@AAVAccessor@@@Z@QAE@XZ 10019877 f   LexBash.obj
 0001:00018881       ??0QuoteCls@?2??ColouriseBashDoc@@YAXIHHQAPAVWordList@@AAVAccessor@@@Z@QAE@XZ 10019881 f   LexBash.obj
 0001:0001888e       ?Open@QuoteCls@?2??ColouriseBashDoc@@YAXIHHQAPAVWordList@@AAVAccessor@@@Z@QAEXH@Z 1001988e f   LexBash.obj
 0001:000188a2       ?Start@QuoteCls@?2??ColouriseBashDoc@@YAXIHHQAPAVWordList@@AAVAccessor@@@Z@QAEXH@Z 100198a2 f   LexBash.obj
 0001:00019aac       ?iswordstart@@YA_ND@Z      1001aaac f i LexBullant.obj
 0001:0001a0f9       ?iscaml@@YAHH@Z            1001b0f9 f i LexCaml.obj
 0001:0001a0f9       ?issml@@YAHH@Z             1001b0f9 f i LexSML.obj
 0001:0001a113       ?IsALabelStart@@YA_NH@Z    1001b113 f i LexCLW.obj
 0001:0001a113       ?iscamlf@@YAHH@Z           1001b113 f i LexCaml.obj
 0001:0001a113       ?issmlf@@YAHH@Z            1001b113 f i LexSML.obj
 0001:0001a12d       ?ColouriseCamlDoc@@YAXIHHQAPAVWordList@@AAVAccessor@@@Z 1001b12d f   LexCaml.obj
 0001:0001a7da       ??1WordList@@QAE@XZ        1001b7da f i LexCLW.obj
 0001:0001a7ff       ?IsALabelCharacter@@YA_NH@Z 1001b7ff f i LexCLW.obj
 0001:0001a820       ?IsAHexCharacter@@YA_NH_N@Z 1001b820 f i LexCLW.obj
 0001:0001a848       ?IsANumericBaseCharacter@@YA_NH_N@Z 1001b848 f i LexCLW.obj
 0001:0001a870       ?SetNumericConstantState@@YA_NAAVStyleContext@@@Z 1001b870 f i LexCLW.obj
 0001:0001a8ce       ?GetNextWordUpper@@YA_NAAVAccessor@@IHPAD@Z 1001b8ce f i LexCLW.obj
 0001:0001bf02       ?isCOBOLwordchar@@YA_ND@Z  1001cf02 f i LexCOBOL.obj
 0001:0001bf28       ?isCOBOLwordstart@@YA_ND@Z 1001cf28 f i LexCOBOL.obj
 0001:0001c9e9       ?Match@StyleContext@@QAE_NPBD@Z 1001d9e9 f i LexCPP.obj
 0001:0001ca3d       ?IsSpaceOrTab@@YA_NH@Z     1001da3d f i Editor.obj
 0001:0001ca3d       ?IsASpaceOrTab@@YA_NI@Z    1001da3d f i LexCPP.obj
 0001:0001df1b       ?IsCssOperator@@YA_NH@Z    1001ef1b f i LexCSS.obj
 0001:00020ea7       ?IsABlank@@YA_NI@Z         10021ea7 f i LexFortran.obj
 0001:00020ec1       ?IsALineEnd@@YA_ND@Z       10021ec1 f i LexFortran.obj
 0001:00020ec1       ?IsLineEndChar@@YA_ND@Z    10021ec1 f i Document.obj
 0001:00020ed6       ?GetContinuedPos@@YAIIAAVAccessor@@@Z 10021ed6 f   LexFortran.obj
 0001:000223fa       ?isGCOperator@@YA_NH@Z     100233fa f i LexGui4Cli.obj
 0001:000229fa       ?Forward@StyleContext@@QAEXH@Z 100239fa f i LexHaskell.obj
 0001:00022d9a       ?IsOperator@@YA_NH@Z       10023d9a f i LexHTML.obj
 0001:000290b5       ?isMMIXALOperator@@YA_ND@Z 1002a0b5 f i LexMMIXAL.obj
 0001:00029411       ??0SString@@QAE@PBD@Z      1002a411 f i LexMPT.obj
 0001:0002a4ef       ?MatchIgnoreCase@@YA_NAAVAccessor@@HPBD@Z 1002b4ef f   LexMySQL.obj
 0001:0002bfe5       ?HandleString@@YA_NAAIIAAVAccessor@@@Z 1002cfe5 f i LexOpal.obj
 0001:0002c067       ?HandleCommentBlock@@YA_NAAIIAAVAccessor@@_N@Z 1002d067 f i LexOpal.obj
 0001:0002c122       ?HandleCommentLine@@YA_NAAIIAAVAccessor@@_N@Z 1002d122 f i LexOpal.obj
 0001:0002c1e1       ?HandlePar@@YA_NAAIAAVAccessor@@@Z 1002d1e1 f i LexOpal.obj
 0001:0002c207       ?HandleSpace@@YA_NAAIIAAVAccessor@@@Z 1002d207 f i LexOpal.obj
 0001:0002c263       ?HandleInteger@@YA_NAAIIAAVAccessor@@@Z 1002d263 f i LexOpal.obj
 0001:0002c2be       ?HandleWord@@YA_NAAIIAAVAccessor@@QAPAVWordList@@@Z 1002d2be f i LexOpal.obj
 0001:0002c407       ?HandleSkip@@YA_NAAIIAAVAccessor@@@Z 1002d407 f i LexOpal.obj
 0001:0002f486       ?MatchUpperCase@@YA_NAAVAccessor@@HPBD@Z 10030486 f   LexPB.obj
 0001:0002fd47       ??0HereDocCls@?1??ColourisePerlDoc@@YAXIHHQAPAVWordList@@AAVAccessor@@@Z@QAE@XZ 10030d47 f   LexPerl.obj
 0001:0002fd6d       ?Append@HereDocCls@?1??ColouriseBashDoc@@YAXIHHQAPAVWordList@@AAVAccessor@@@Z@QAEXH@Z 10030d6d f   LexBash.obj
 0001:0002fd6d       ?Append@HereDocCls@?1??ColourisePerlDoc@@YAXIHHQAPAVWordList@@AAVAccessor@@@Z@QAEXH@Z 10030d6d f   LexPerl.obj
 0001:0002fd8c       ?New@QuoteCls@?2??ColourisePerlDoc@@YAXIHHQAPAVWordList@@AAVAccessor@@@Z@QAEXH@Z 10030d8c f   LexPerl.obj
 0001:0002fda0       ?Open@QuoteCls@?2??ColourisePerlDoc@@YAXIHHQAPAVWordList@@AAVAccessor@@@Z@QAEXH@Z 10030da0 f   LexPerl.obj
 0001:0003018e       ??0QuoteCls@?2??ColourisePerlDoc@@YAXIHHQAPAVWordList@@AAVAccessor@@@Z@QAE@XZ 1003118e f   LexPerl.obj
 0001:00035f81       ??4QuoteCls@@QAEAAV0@ABV0@@Z 10036f81 f i LexRuby.obj
 0001:000365ed       ??0HereDocCls@?1??ColouriseRbDoc@@YAXIHHQAPAVWordList@@AAVAccessor@@@Z@QAE@XZ 100375ed f   LexRuby.obj
 0001:000390ad       ?issmld@@YAHH@Z            1003a0ad f i LexSML.obj
 0001:000390c7       ?ColouriseSMLDoc@@YAXIHHQAPAVWordList@@AAVAccessor@@@Z 1003a0c7 f   LexSML.obj
 0001:00039602       ?FoldCamlDoc@@YAXIHHQAPAVWordList@@AAVAccessor@@@Z 1003a602 f   LexCaml.obj
 0001:00039602       ?FoldSMLDoc@@YAXIHHQAPAVWordList@@AAVAccessor@@@Z 1003a602 f   LexSML.obj
 0001:0003a9c8       ?isTACLoperator@@YA_ND@Z   1003b9c8 f i LexTACL.obj
 0001:0003a9e4       ?isTACLwordchar@@YA_ND@Z   1003b9e4 f i LexTACL.obj
 0001:0003aa0a       ?isTACLwordstart@@YA_ND@Z  1003ba0a f i LexTACL.obj
 0001:0003c44d       ?isTALoperator@@YA_ND@Z    1003d44d f i LexTAL.obj
 0001:0003c46f       ?isTALwordchar@@YA_ND@Z    1003d46f f i LexTAL.obj
 0001:0003c48d       ?isTALwordstart@@YA_ND@Z   1003d48d f i LexTAL.obj
 0001:000402b1       ?RefreshColourPalette@LineMarker@@QAEXAAVPalette@@_N@Z 100412b1 f   LineMarker.obj
 0001:000402e7       ?SetXPM@LineMarker@@QAEXPBD@Z 100412e7 f   LineMarker.obj
 0001:00040475       ?Draw@LineMarker@@QAEXPAVSurface@@AAVPRectangle@@AAVFont@@@Z 10041475 f   LineMarker.obj
 0001:00040c71       ??0MarkerHandleSet@@QAE@XZ 10041c71 f   PerLine.obj
 0001:00040c71       ??0Menu@@QAE@XZ            10041c71 f   PlatWin.obj
 0001:00040c77       ??1MarkerHandleSet@@QAE@XZ 10041c77 f   PerLine.obj
 0001:00040c94       ?Length@MarkerHandleSet@@QBEHXZ 10041c94 f   PerLine.obj
 0001:00040ca3       ?MarkValue@MarkerHandleSet@@QBEHXZ 10041ca3 f   PerLine.obj
 0001:00040cbf       ?Contains@MarkerHandleSet@@QBE_NH@Z 10041cbf f   PerLine.obj
 0001:00040cdb       ?InsertHandle@MarkerHandleSet@@QAE_NHH@Z 10041cdb f   PerLine.obj
 0001:00040d08       ?RemoveHandle@MarkerHandleSet@@QAEXH@Z 10041d08 f   PerLine.obj
 0001:00040d2d       ?RemoveNumber@MarkerHandleSet@@QAE_NH@Z 10041d2d f   PerLine.obj
 0001:00040d5e       ?CombineWith@MarkerHandleSet@@QAEXPAV1@@Z 10041d5e f   PerLine.obj
 0001:00040dc1       ??A?$SplitVector@PAD@@QBEAAPADH@Z 10041dc1 f i PerLine.obj
 0001:00040dc1       ??A?$SplitVector@PAVMarkerHandleSet@@@@QBEAAPAVMarkerHandleSet@@H@Z 10041dc1 f i PerLine.obj
 0001:00040dc1       ??A?$SplitVector@H@@QBEAAHH@Z 10041dc1 f i PerLine.obj
 0001:00040dde       ?DeleteRange@?$SplitVector@H@@QAEXHH@Z 10041dde f i CellBuffer.obj
 0001:00040dde       ?DeleteRange@?$SplitVector@PAD@@QAEXHH@Z 10041dde f i PerLine.obj
 0001:00040dde       ?DeleteRange@?$SplitVector@PAVMarkerHandleSet@@@@QAEXHH@Z 10041dde f i PerLine.obj
 0001:00040e3a       ?ReAllocate@?$SplitVector@H@@QAEXH@Z 10041e3a f i CellBuffer.obj
 0001:00040e3a       ?ReAllocate@?$SplitVector@PAVMarkerHandleSet@@@@QAEXH@Z 10041e3a f i PerLine.obj
 0001:00040e3a       ?ReAllocate@?$SplitVector@PAD@@QAEXH@Z 10041e3a f i PerLine.obj
 0001:00040ea0       ?LineFromHandle@LineMarkers@@QAEHH@Z 10041ea0 f   PerLine.obj
 0001:00040ee9       ?MergeMarkers@LineMarkers@@QAEXH@Z 10041ee9 f   PerLine.obj
 0001:00040f87       ?MarkValue@LineMarkers@@QAEHH@Z 10041f87 f   PerLine.obj
 0001:00040fc4       ?DeleteMark@LineMarkers@@QAEXHH_N@Z 10041fc4 f   PerLine.obj
 0001:0004106f       ?DeleteMarkFromHandle@LineMarkers@@QAEXH@Z 1004206f f   PerLine.obj
 0001:000410d9       ??1LineLevels@@UAE@XZ      100420d9 f   PerLine.obj
 0001:0004110d       ?GetLevel@LineLevels@@QAEHH@Z 1004210d f   PerLine.obj
 0001:00041135       ??1LineState@@UAE@XZ       10042135 f   PerLine.obj
 0001:00041169       ?GetMaxLineState@LineState@@QAEHXZ 10042169 f   PerLine.obj
 0001:0004116d       ?MultipleStyles@LineAnnotation@@QBE_NH@Z 1004216d f   PerLine.obj
 0001:000411ad       ?Style@LineAnnotation@@QAEHH@Z 100421ad f   PerLine.obj
 0001:000411e4       ?Text@LineAnnotation@@QBEPBDH@Z 100421e4 f   PerLine.obj
 0001:0004121b       ?Length@LineAnnotation@@QBEHH@Z 1004221b f   PerLine.obj
 0001:00041252       ?Lines@LineAnnotation@@QBEHH@Z 10042252 f   PerLine.obj
 0001:0004128a       ?Delete@?$SplitVector@PAD@@QAEXH@Z 1004228a f i PerLine.obj
 0001:0004128a       ?Delete@?$SplitVector@H@@QAEXH@Z 1004228a f i CellBuffer.obj
 0001:0004128a       ?Delete@?$SplitVector@PAVMarkerHandleSet@@@@QAEXH@Z 1004228a f i PerLine.obj
 0001:000412a2       ?RoomFor@?$SplitVector@PAD@@IAEXH@Z 100422a2 f i PerLine.obj
 0001:000412a2       ?RoomFor@?$SplitVector@H@@IAEXH@Z 100422a2 f i CellBuffer.obj
 0001:000412a2       ?RoomFor@?$SplitVector@PAVMarkerHandleSet@@@@IAEXH@Z 100422a2 f i PerLine.obj
 0001:000412d4       ?InsertValue@?$SplitVector@H@@QAEXHHH@Z 100422d4 f i PerLine.obj
 0001:000412d4       ?InsertValue@?$SplitVector@PAD@@QAEXHHPAD@Z 100422d4 f i PerLine.obj
 0001:000412d4       ?InsertValue@?$SplitVector@PAVMarkerHandleSet@@@@QAEXHHPAVMarkerHandleSet@@@Z 100422d4 f i PerLine.obj
 0001:00041324       ?Init@LineMarkers@@UAEXXZ  10042324 f   PerLine.obj
 0001:00041373       ?RemoveLine@LineMarkers@@UAEXH@Z 10042373 f   PerLine.obj
 0001:0004139c       ?RemoveLine@LineLevels@@UAEXH@Z 1004239c f   PerLine.obj
 0001:000413f6       ?Init@LineLevels@@UAEXXZ   100423f6 f   PerLine.obj
 0001:000413f6       ?Init@LineState@@UAEXXZ    100423f6 f   PerLine.obj
 0001:000413f6       ?ClearLevels@LineLevels@@QAEXXZ 100423f6 f   PerLine.obj
 0001:00041404       ?RemoveLine@LineState@@UAEXH@Z 10042404 f   PerLine.obj
 0001:00041419       ?RemoveLine@LineAnnotation@@UAEXH@Z 10042419 f   PerLine.obj
 0001:0004144a       ?Styles@LineAnnotation@@QBEPBEH@Z 1004244a f   PerLine.obj
 0001:0004149c       ?ClearAll@LineAnnotation@@QAEXXZ 1004249c f   PerLine.obj
 0001:000414dd       ?Insert@?$SplitVector@PAVMarkerHandleSet@@@@QAEXHPAVMarkerHandleSet@@@Z 100424dd f i PerLine.obj
 0001:000414dd       ?Insert@?$SplitVector@PAD@@QAEXHPAD@Z 100424dd f i PerLine.obj
 0001:000414dd       ?Insert@?$SplitVector@H@@QAEXHH@Z 100424dd f i CellBuffer.obj
 0001:00041517       ?EnsureLength@?$SplitVector@PAD@@QAEXH@Z 10042517 f i PerLine.obj
 0001:00041517       ?EnsureLength@?$SplitVector@H@@QAEXH@Z 10042517 f i PerLine.obj
 0001:00041531       ??1LineMarkers@@UAE@XZ     10042531 f   PerLine.obj
 0001:00041571       ?InsertLine@LineMarkers@@UAEXH@Z 10042571 f   PerLine.obj
 0001:00041571       ?InsertLine@LineAnnotation@@UAEXH@Z 10042571 f   PerLine.obj
 0001:00041588       ?AddMark@LineMarkers@@QAEHHHH@Z 10042588 f   PerLine.obj
 0001:0004160e       ?InsertLine@LineLevels@@UAEXH@Z 1004260e f   PerLine.obj
 0001:0004164e       ?ExpandLevels@LineLevels@@QAEXH@Z 1004264e f   PerLine.obj
 0001:00041669       ?SetLevel@LineLevels@@QAEHHHH@Z 10042669 f   PerLine.obj
 0001:000416b7       ?InsertLine@LineState@@UAEXH@Z 100426b7 f   PerLine.obj
 0001:000416dd       ?SetLineState@LineState@@QAEHHH@Z 100426dd f   PerLine.obj
 0001:00041712       ?GetLineState@LineState@@QAEHH@Z 10042712 f   PerLine.obj
 0001:00041735       ??1LineAnnotation@@UAE@XZ  10042735 f   PerLine.obj
 0001:00041775       ?Init@LineAnnotation@@UAEXXZ 10042775 f   PerLine.obj
 0001:0004177a       ?SetText@LineAnnotation@@QAEXHPBD@Z 1004277a f   PerLine.obj
 0001:0004186d       ?SetStyle@LineAnnotation@@QAEXHH@Z 1004286d f   PerLine.obj
 0001:000418be       ?SetStyles@LineAnnotation@@QAEXHPBE@Z 100428be f   PerLine.obj
 0001:0004199b       ??_ESurface@@UAEPAXI@Z     1004299b f i PlatWin.obj
 0001:0004199b       ??_GSurface@@UAEPAXI@Z     1004299b f i PlatWin.obj
 0001:000419b8       ??_EDynamicLibrary@@UAEPAXI@Z 100429b8 f i PlatWin.obj
 0001:000419b8       ??_GDynamicLibrary@@UAEPAXI@Z 100429b8 f i PlatWin.obj
 0001:000419e6       ?IsNT@@YA_NXZ              100429e6 f   PlatWin.obj
 0001:000419ec       ?FromLong@Point@@SA?AV1@J@Z 100429ec f   PlatWin.obj
 0001:00041a1f       ?Allocate@Palette@@QAEXAAVWindow@@@Z 10042a1f f   PlatWin.obj
 0001:00041b4b       ?SameAs@FontCached@@AAE_NPBDHH_N1@Z 10042b4b f   PlatWin.obj
 0001:00041ba8       ?Release@FontCached@@EAEXXZ 10042ba8 f   PlatWin.obj
 0001:00041bbf       ?ReleaseId@FontCached@@SAXPAX@Z 10042bbf f   PlatWin.obj
 0001:00041c15       ??0Font@@QAE@XZ            10042c15 f   PlatWin.obj
 0001:00041c22       ??1Font@@UAE@XZ            10042c22 f   PlatWin.obj
 0001:00041c29       ?Release@Font@@UAEXXZ      10042c29 f   PlatWin.obj
 0001:00041c40       ??0SurfaceImpl@@QAE@XZ     10042c40 f   PlatWin.obj
 0001:00041ca1       ?Release@SurfaceImpl@@UAEXXZ 10042ca1 f   PlatWin.obj
 0001:00041d3f       ?Initialised@SurfaceImpl@@UAE_NXZ 10042d3f f   PlatWin.obj
 0001:00041d48       ?Init@SurfaceImpl@@UAEXPAX@Z 10042d48 f   PlatWin.obj
 0001:00041d6c       ?Init@SurfaceImpl@@UAEXPAX0@Z 10042d6c f   PlatWin.obj
 0001:00041d88       ?InitPixMap@SurfaceImpl@@UAEXHHPAVSurface@@PAX@Z 10042d88 f   PlatWin.obj
 0001:00041dd6       ?PenColour@SurfaceImpl@@UAEXVColourAllocated@@@Z 10042dd6 f   PlatWin.obj
 0001:00041e1e       ?BrushColor@SurfaceImpl@@AAEXVColourAllocated@@@Z 10042e1e f   PlatWin.obj
 0001:00041e6c       ?SetFont@SurfaceImpl@@AAEXAAVFont@@@Z 10042e6c f   PlatWin.obj
 0001:00041ea2       ?LogPixelsY@SurfaceImpl@@UAEHXZ 10042ea2 f   PlatWin.obj
 0001:00041eae       ?DeviceHeightFont@SurfaceImpl@@UAEHH@Z 10042eae f   PlatWin.obj
 0001:00041ec3       ?MoveTo@SurfaceImpl@@UAEXHH@Z 10042ec3 f   PlatWin.obj
 0001:00041ed9       ?LineTo@SurfaceImpl@@UAEXHH@Z 10042ed9 f   PlatWin.obj
 0001:00041eed       ?Polygon@SurfaceImpl@@UAEXPAVPoint@@HVColourAllocated@@1@Z 10042eed f   PlatWin.obj
 0001:00041f19       ?RectangleDraw@SurfaceImpl@@UAEXVPRectangle@@VColourAllocated@@1@Z 10042f19 f   PlatWin.obj
 0001:00041f4b       ?FillRectangle@SurfaceImpl@@UAEXVPRectangle@@VColourAllocated@@@Z 10042f4b f   PlatWin.obj
 0001:00041fa7       ?FillRectangle@SurfaceImpl@@UAEXVPRectangle@@AAVSurface@@@Z 10042fa7 f   PlatWin.obj
 0001:00042012       ?RoundedRectangle@SurfaceImpl@@UAEXVPRectangle@@VColourAllocated@@1@Z 10043012 f   PlatWin.obj
 0001:00042099       ?Ellipse@SurfaceImpl@@UAEXVPRectangle@@VColourAllocated@@1@Z 10043099 f   PlatWin.obj
 0001:000420cb       ?Copy@SurfaceImpl@@UAEXVPRectangle@@VPoint@@AAVSurface@@@Z 100430cb f   PlatWin.obj
 0001:00042100       ?WidthChar@SurfaceImpl@@UAEHAAVFont@@D@Z 10043100 f   PlatWin.obj
 0001:0004212b       ?Ascent@SurfaceImpl@@UAEHAAVFont@@@Z 1004312b f   PlatWin.obj
 0001:00042151       ?Descent@SurfaceImpl@@UAEHAAVFont@@@Z 10043151 f   PlatWin.obj
 0001:00042177       ?InternalLeading@SurfaceImpl@@UAEHAAVFont@@@Z 10043177 f   PlatWin.obj
 0001:0004219d       ?ExternalLeading@SurfaceImpl@@UAEHAAVFont@@@Z 1004319d f   PlatWin.obj
 0001:000421c3       ?Height@SurfaceImpl@@UAEHAAVFont@@@Z 100431c3 f   PlatWin.obj
 0001:000421e9       ?AverageCharWidth@SurfaceImpl@@UAEHAAVFont@@@Z 100431e9 f   PlatWin.obj
 0001:0004220f       ?SetPalette@SurfaceImpl@@UAEHPAVPalette@@_N@Z 1004320f f   PlatWin.obj
 0001:00042256       ?SetClip@SurfaceImpl@@UAEXVPRectangle@@@Z 10043256 f   PlatWin.obj
 0001:00042272       ?FlushCachedState@SurfaceImpl@@UAEXXZ 10043272 f   PlatWin.obj
 0001:0004227e       ?SetUnicodeMode@SurfaceImpl@@UAEX_N@Z 1004327e f   PlatWin.obj
 0001:00042288       ?SetDBCSMode@SurfaceImpl@@UAEXH@Z 10043288 f   PlatWin.obj
 0001:000422b4       ?Allocate@Surface@@SAPAV1@XZ 100432b4 f   PlatWin.obj
 0001:000422ca       ??1Window@@UAE@XZ          100432ca f   PlatWin.obj
 0001:000422d1       ?Destroy@Window@@QAEXXZ    100432d1 f   PlatWin.obj
 0001:000422e8       ?GetPosition@Window@@QAE?AVPRectangle@@XZ 100432e8 f   PlatWin.obj
 0001:00042319       ?SetPosition@Window@@QAEXVPRectangle@@@Z 10043319 f   PlatWin.obj
 0001:00042341       ?SetPositionRelative@Window@@QAEXVPRectangle@@V1@@Z 10043341 f   PlatWin.obj
 0001:000423cc       ?GetClientPosition@Window@@QAE?AVPRectangle@@XZ 100433cc f   PlatWin.obj
 0001:00042410       ?Show@Window@@QAEX_N@Z     10043410 f   PlatWin.obj
 0001:00042429       ?InvalidateAll@Window@@QAEXXZ 10043429 f   PlatWin.obj
 0001:00042437       ?InvalidateRectangle@Window@@QAEXVPRectangle@@@Z 10043437 f   PlatWin.obj
 0001:0004248d       ?SetFont@Window@@UAEXAAVFont@@@Z 1004348d f   PlatWin.obj
 0001:000424a5       ?SetCursor@Window@@QAEXW4Cursor@1@@Z 100434a5 f   PlatWin.obj
 0001:00042575       ?GetMonitorRect@Window@@QAE?AVPRectangle@@VPoint@@@Z 10043575 f   PlatWin.obj
 0001:00042589       ?Clear@LineToItem@@QAEXXZ  10043589 f i PlatWin.obj
 0001:000425a7       ?Get@LineToItem@@QBE?AUListItemData@@H@Z 100435a7 f i PlatWin.obj
 0001:000425df       ?AllocWord@LineToItem@@AAEPADPBD@Z 100435df f   PlatWin.obj
 0001:00042667       ?AllocItem@LineToItem@@QAEPAUListItemData@@XZ 10043667 f   PlatWin.obj
 0001:000426cb       ?Append@LineToItem@@QAEPAUListItemData@@PBDH@Z 100436cb f   PlatWin.obj
 0001:000426f1       ??0ListBox@@QAE@XZ         100436f1 f   PlatWin.obj
 0001:00042702       ??1ListBox@@UAE@XZ         10043702 f   PlatWin.obj
 0001:0004270d       ?Create@ListBoxX@@UAEXAAVWindow@@HVPoint@@H_N@Z 1004370d f   PlatWin.obj
 0001:0004278a       ?SetFont@ListBoxX@@UAEXAAVFont@@@Z 1004378a f   PlatWin.obj
 0001:000427f0       ?SetAverageCharWidth@ListBoxX@@UAEXH@Z 100437f0 f   PlatWin.obj
 0001:000427fa       ?SetVisibleRows@ListBoxX@@UAEXH@Z 100437fa f   PlatWin.obj
 0001:00042804       ?GetVisibleRows@ListBoxX@@UBEHXZ 10043804 f   PlatWin.obj
 0001:00042808       ?GetHWND@ListBoxX@@ABEPAUHWND__@@XZ 10043808 f   PlatWin.obj
 0001:0004280c       ?TextOffset@ListBoxX@@ABEHXZ 1004380c f   PlatWin.obj
 0001:0004282b       ?Clear@ListBoxX@@UAEXXZ    1004382b f   PlatWin.obj
 0001:00042851       ?Append@ListBoxX@@UAEXPADH@Z 10043851 f   PlatWin.obj
 0001:0004289b       ?Length@ListBoxX@@UAEHXZ   1004389b f   PlatWin.obj
 0001:0004289f       ?GetSelection@ListBoxX@@UAEHXZ 1004389f f   PlatWin.obj
 0001:000428b2       ?Find@ListBoxX@@UAEHPBD@Z  100438b2 f   PlatWin.obj
 0001:000428b8       ?GetValue@ListBoxX@@UAEXHPADH@Z 100438b8 f   PlatWin.obj
 0001:000428ec       ?RegisterImage@ListBoxX@@UAEXHPBD@Z 100438ec f   PlatWin.obj
 0001:000428f4       ?ClearRegisteredImages@ListBoxX@@UAEXXZ 100438f4 f   PlatWin.obj
 0001:000428fc       ?AppendListItem@ListBoxX@@AAEXPBD0@Z 100438fc f   PlatWin.obj
 0001:00042951       ?AdjustWindowRect@ListBoxX@@ABEXPAVPRectangle@@@Z 10043951 f   PlatWin.obj
 0001:0004296a       ?ItemHeight@ListBoxX@@ABEHXZ 1004396a f   PlatWin.obj
 0001:00042992       ?MinClientWidth@ListBoxX@@ABEHXZ 10043992 f   PlatWin.obj
 0001:000429a6       ?MinTrackSize@ListBoxX@@ABE?AVPoint@@XZ 100439a6 f   PlatWin.obj
 0001:000429f1       ?MaxTrackSize@ListBoxX@@ABE?AVPoint@@XZ 100439f1 f   PlatWin.obj
 0001:00042a61       ?SetRedraw@ListBoxX@@AAEX_N@Z 10043a61 f   PlatWin.obj
 0001:00042a8f       ?StartResize@ListBoxX@@AAEXI@Z 10043a8f f   PlatWin.obj
 0001:00042b33       ?NcHitTest@ListBoxX@@ABEHIJ@Z 10043b33 f   PlatWin.obj
 0001:00042bf0       ?OnDoubleClick@ListBoxX@@AAEXXZ 10043bf0 f   PlatWin.obj
 0001:00042bfe       ?GetClientExtent@ListBoxX@@ABE?AVPoint@@XZ 10043bfe f   PlatWin.obj
 0001:00042c25       ?CentreItem@ListBoxX@@AAEXH@Z 10043c25 f   PlatWin.obj
 0001:00042c98       ?Paint@ListBoxX@@AAEXPAUHDC__@@@Z 10043c98 f   PlatWin.obj
 0001:00042d4f       ?ControlWndProc@ListBoxX@@CGJPAUHWND__@@IIJ@Z 10043d4f f   PlatWin.obj
 0001:00042e69       ?ListBoxX_Unregister@@YA_NXZ 10043e69 f   PlatWin.obj
 0001:00042e81       ?Destroy@Menu@@QAEXXZ      10043e81 f   PlatWin.obj
 0001:00042e96       ?Show@Menu@@QAEXVPoint@@AAVWindow@@@Z 10043e96 f   PlatWin.obj
 0001:00042ec4       ?Chrome@Platform@@SA?AVColourDesired@@XZ 10043ec4 f   PlatWin.obj
 0001:00042ed5       ?ChromeHighlight@Platform@@SA?AVColourDesired@@XZ 10043ed5 f   PlatWin.obj
 0001:00042ee6       ?DefaultFont@Platform@@SAPBDXZ 10043ee6 f   PlatWin.obj
 0001:00042eec       ?DefaultFontSize@Platform@@SAHXZ 10043eec f   PlatWin.obj
 0001:00042ef0       ?DoubleClickTime@Platform@@SAIXZ 10043ef0 f   PlatWin.obj
 0001:00042ef6       ?MouseButtonBounce@Platform@@SA_NXZ 10043ef6 f   PlatWin.obj
 0001:00042ef9       ?IsKeyDown@Platform@@SA_NH@Z 10043ef9 f   PlatWin.obj
 0001:00042f0a       ?IsDBCSLeadByte@Platform@@SA_NHD@Z 10043f0a f   PlatWin.obj
 0001:00042f1f       ?DBCSCharLength@Platform@@SAHHPBD@Z 10043f1f f   PlatWin.obj
 0001:00042f3c       ?DBCSCharMaxLength@Platform@@SAHXZ 10043f3c f   PlatWin.obj
 0001:00042f40       ?Minimum@Platform@@SAHHH@Z 10043f40 f   PlatWin.obj
 0001:00042f4f       ?Maximum@Platform@@SAHHH@Z 10043f4f f   PlatWin.obj
 0001:00042f5e       ?ShowAssertionPopUps@Platform@@SA_N_N@Z 10043f5e f   PlatWin.obj
 0001:00042f6e       ?Clamp@Platform@@SAHHHH@Z  10043f6e f   PlatWin.obj
 0001:00042f86       ?Platform_Finalise@@YAXXZ  10043f86 f   PlatWin.obj
 0001:00042f97       ??0?$VarBuffer@_W$0CHBA@@@QAE@I@Z 10043f97 f i PlatWin.obj
 0001:00042fd5       ??1?$VarBuffer@_W$0CHBA@@@QAE@XZ 10043fd5 f i PlatWin.obj
 0001:00042fee       ??0?$VarBuffer@H$0CHBA@@@QAE@I@Z 10043fee f i PlatWin.obj
 0001:0004302c       ??1?$VarBuffer@H$0CHBA@@@QAE@XZ 1004402c f i PlatWin.obj
 0001:00043045       ??_GFont@@UAEPAXI@Z        10044045 f i PlatWin.obj
 0001:00043045       ??_EFont@@UAEPAXI@Z        10044045 f i PlatWin.obj
 0001:00043061       ?Release@Palette@@QAEXXZ   10044061 f   PlatWin.obj
 0001:000430bd       ?WantFind@Palette@@QAEXAAUColourPair@@_N@Z 100440bd f   PlatWin.obj
 0001:000431b0       ??0FontCached@@AAE@PBDHH_N1@Z 100441b0 f   PlatWin.obj
 0001:00043219       ??_EFontCached@@EAEPAXI@Z  10044219 f i PlatWin.obj
 0001:00043219       ??_GFontCached@@EAEPAXI@Z  10044219 f i PlatWin.obj
 0001:0004323b       ?FindOrCreate@FontCached@@SAPAXPBDHH_N1@Z 1004423b f   PlatWin.obj
 0001:000432f5       ?Create@Font@@UAEXPBDHH_N11@Z 100442f5 f   PlatWin.obj
 0001:0004331f       ??1SurfaceImpl@@UAE@XZ     1004431f f   PlatWin.obj
 0001:00043335       ?AlphaRectangle@SurfaceImpl@@UAEXVPRectangle@@HVColourAllocated@@H1HH@Z 10044335 f   PlatWin.obj
 0001:000435bc       ??0TextWide@@QAE@PBDH_NH@Z 100445bc f i PlatWin.obj
 0001:0004360f       ??1TextWide@@QAE@XZ        1004460f f i PlatWin.obj
 0001:00043614       ?WidthText@SurfaceImpl@@UAEHAAVFont@@PBDH@Z 10044614 f   PlatWin.obj
 0001:000436cf       ?MeasureWidths@SurfaceImpl@@UAEXAAVFont@@PBDHPAH@Z 100446cf f   PlatWin.obj
 0001:00043a07       ??_GListBox@@UAEPAXI@Z     10044a07 f i PlatWin.obj
 0001:00043a07       ??_EListBox@@UAEPAXI@Z     10044a07 f i PlatWin.obj
 0001:00043a23       ??0ListBoxX@@QAE@XZ        10044a23 f i PlatWin.obj
 0001:00043ac2       ?SetDoubleClickAction@ListBoxX@@UAEXP6AXPAX@Z0@Z 10044ac2 f i PlatWin.obj
 0001:00043ad3       ??1ListBoxX@@UAE@XZ        10044ad3 f i PlatWin.obj
 0001:00043b24       ??_GListBoxX@@UAEPAXI@Z    10044b24 f i PlatWin.obj
 0001:00043b24       ??_EListBoxX@@UAEPAXI@Z    10044b24 f i PlatWin.obj
 0001:00043b40       ?Allocate@ListBox@@SAPAV1@XZ 10044b40 f   PlatWin.obj
 0001:00043b70       ?GetDesiredRect@ListBoxX@@UAE?AVPRectangle@@XZ 10044b70 f   PlatWin.obj
 0001:00043cf2       ?CaretFromEdge@ListBoxX@@UAEHXZ 10044cf2 f   PlatWin.obj
 0001:00043d29       ?Select@ListBoxX@@UAEXH@Z  10044d29 f   PlatWin.obj
 0001:00043d5f       ?Draw@ListBoxX@@QAEXPAUtagDRAWITEMSTRUCT@@@Z 10044d5f f   PlatWin.obj
 0001:00043f6f       ?SetList@ListBoxX@@UAEXPBDDD@Z 10044f6f f   PlatWin.obj
 0001:00044051       ?ResizeToCursor@ListBoxX@@AAEXXZ 10045051 f   PlatWin.obj
 0001:000441a1       ?WndProc@ListBoxX@@QAEJPAUHWND__@@IIJ@Z 100451a1 f   PlatWin.obj
 0001:000443e5       ?StaticWndProc@ListBoxX@@SGJPAUHWND__@@IIJ@Z 100453e5 f   PlatWin.obj
 0001:0004448e       ?CreatePopUp@Menu@@QAEXXZ  1004548e f   PlatWin.obj
 0001:000444a0       ??0DynamicLibraryImpl@@QAE@PBD@Z 100454a0 f i PlatWin.obj
 0001:000444bc       ??1DynamicLibraryImpl@@UAE@XZ 100454bc f i PlatWin.obj
 0001:000444db       ?FindFunction@DynamicLibraryImpl@@UAEPAXPBD@Z 100454db f i PlatWin.obj
 0001:000444f4       ?IsValid@DynamicLibraryImpl@@UAE_NXZ 100454f4 f i PlatWin.obj
 0001:000444fd       ??_GDynamicLibraryImpl@@UAEPAXI@Z 100454fd f i PlatWin.obj
 0001:000444fd       ??_EDynamicLibraryImpl@@UAEPAXI@Z 100454fd f i PlatWin.obj
 0001:00044519       ?Load@DynamicLibrary@@SAPAV1@PBD@Z 10045519 f   PlatWin.obj
 0001:00044534       ?Platform_Initialise@@YAXPAX@Z 10045534 f   PlatWin.obj
 0001:000445dd       ??0Palette@@QAE@XZ         100455dd f   PlatWin.obj
 0001:0004462b       ??1Palette@@QAE@XZ         1004562b f   PlatWin.obj
 0001:00044642       ??_ESurfaceImpl@@UAEPAXI@Z 10045642 f i PlatWin.obj
 0001:00044642       ??_GSurfaceImpl@@UAEPAXI@Z 10045642 f i PlatWin.obj
 0001:0004465e       ?DrawTextCommon@SurfaceImpl@@QAEXVPRectangle@@AAVFont@@HPBDHI@Z 1004565e f   PlatWin.obj
 0001:0004489b       ?DrawTextNoClip@SurfaceImpl@@UAEXVPRectangle@@AAVFont@@HPBDHVColourAllocated@@3@Z 1004589b f   PlatWin.obj
 0001:000448e3       ?DrawTextClipped@SurfaceImpl@@UAEXVPRectangle@@AAVFont@@HPBDHVColourAllocated@@3@Z 100458e3 f   PlatWin.obj
 0001:0004492b       ?DrawTextTransparent@SurfaceImpl@@UAEXVPRectangle@@AAVFont@@HPBDHVColourAllocated@@@Z 1004592b f   PlatWin.obj
 0001:00044993       ?ContainsCharacter@Range@@QBE_NH@Z 10045993 f i PositionCache.obj
 0001:000449be       ?Free@LineLayout@@QAEXXZ   100459be f   PositionCache.obj
 0001:00044a01       ?Invalidate@LineLayout@@QAEXW4validLevel@1@@Z 10045a01 f   PositionCache.obj
 0001:00044a10       ?LineStart@LineLayout@@QBEHH@Z 10045a10 f   PositionCache.obj
 0001:00044a33       ?LineLastVisible@LineLayout@@QBEHH@Z 10045a33 f   PositionCache.obj
 0001:00044a81       ?InLine@LineLayout@@QBE_NHH@Z 10045a81 f   PositionCache.obj
 0001:00044abb       ?SetLineStart@LineLayout@@QAEXHH@Z 10045abb f   PositionCache.obj
 0001:00044b2f       ?SetBracesHighlight@LineLayout@@QAEXVRange@@QAHDH@Z 10045b2f f   PositionCache.obj
 0001:00044bae       ?RestoreBracesHighlight@LineLayout@@QAEXVRange@@QAH@Z 10045bae f   PositionCache.obj
 0001:00044c05       ?FindBefore@LineLayout@@QBEHHHH@Z 10045c05 f   PositionCache.obj
 0001:00044c36       ?Allocate@LineLayoutCache@@AAEXH@Z 10045c36 f   PositionCache.obj
 0001:00044c93       ?Deallocate@LineLayoutCache@@QAEXXZ 10045c93 f   PositionCache.obj
 0001:00044ccc       ?Invalidate@LineLayoutCache@@QAEXW4validLevel@LineLayout@@@Z 10045ccc f   PositionCache.obj
 0001:00044d0d       ?SetLevel@LineLayoutCache@@QAEXH@Z 10045d0d f   PositionCache.obj
 0001:00044d2a       ?Dispose@LineLayoutCache@@QAEXPAVLineLayout@@@Z 10045d2a f   PositionCache.obj
 0001:00044d4c       ?Insert@BreakFinder@@AAEXH@Z 10045d4c f   PositionCache.obj
 0001:00044e1c       ??0BreakFinder@@QAE@PAVLineLayout@@HHH_NH@Z 10045e1c f   PositionCache.obj
 0001:00044f58       ??1BreakFinder@@QAE@XZ     10045f58 f   PositionCache.obj
 0001:00044f62       ?First@BreakFinder@@QAEHXZ 10045f62 f   PositionCache.obj
 0001:00044f66       ?Next@BreakFinder@@QAEHXZ  10045f66 f   PositionCache.obj
 0001:000450d7       ??0PositionCacheEntry@@QAE@XZ 100460d7 f   PositionCache.obj
 0001:000450e8       ?Clear@PositionCacheEntry@@QAEXXZ 100460e8 f   PositionCache.obj
 0001:00045104       ?Retrieve@PositionCacheEntry@@QBE_NIPBDIPAH@Z 10046104 f   PositionCache.obj
 0001:00045158       ?Hash@PositionCacheEntry@@SAHIPBDI@Z 10046158 f   PositionCache.obj
 0001:00045193       ?NewerThan@PositionCacheEntry@@QAE_NABV1@@Z 10046193 f   PositionCache.obj
 0001:000451a6       ?ResetClock@PositionCacheEntry@@QAEXXZ 100461a6 f   PositionCache.obj
 0001:000451b4       ?Clear@PositionCache@@QAEXXZ 100461b4 f   PositionCache.obj
 0001:000451e3       ??1LineLayout@@UAE@XZ      100461e3 f   PositionCache.obj
 0001:000451ee       ?Resize@LineLayout@@QAEXH@Z 100461ee f   PositionCache.obj
 0001:00045245       ??0LineLayoutCache@@QAE@XZ 10046245 f   PositionCache.obj
 0001:00045270       ??1LineLayoutCache@@UAE@XZ 10046270 f   PositionCache.obj
 0001:0004527b       ?AllocateForLevel@LineLayoutCache@@AAEXHH@Z 1004627b f   PositionCache.obj
 0001:000452e3       ?Set@PositionCacheEntry@@QAEXIPBDIPAHI@Z 100462e3 f   PositionCache.obj
 0001:00045369       ??1PositionCacheEntry@@QAE@XZ 10046369 f   PositionCache.obj
 0001:0004536e       ??0PositionCache@@QAE@XZ   1004636e f   PositionCache.obj
 0001:000453e0       ??_EPositionCacheEntry@@QAEPAXI@Z 100463e0 f i PositionCache.obj
 0001:00045429       ??1PositionCache@@QAE@XZ   10046429 f   PositionCache.obj
 0001:00045440       ?SetSize@PositionCache@@QAEXI@Z 10046440 f   PositionCache.obj
 0001:000454b7       ?MeasureWidths@PositionCache@@QAEXPAVSurface@@AAVViewStyle@@IPBDIPAH@Z 100464b7 f   PositionCache.obj
 0001:000455c4       ??0LineLayout@@QAE@H@Z     100465c4 f   PositionCache.obj
 0001:0004562d       ??_GLineLayout@@UAEPAXI@Z  1004662d f i PositionCache.obj
 0001:0004562d       ??_ELineLayout@@UAEPAXI@Z  1004662d f i PositionCache.obj
 0001:00045649       ??_ELineLayoutCache@@UAEPAXI@Z 10046649 f i PositionCache.obj
 0001:00045649       ??_GLineLayoutCache@@UAEPAXI@Z 10046649 f i PositionCache.obj
 0001:00045665       ?Retrieve@LineLayoutCache@@QAEPAVLineLayout@@HHHHHH@Z 10046665 f   PositionCache.obj
 0001:000457aa       ?HashString@PropSet@@KAIPBDI@Z 100467aa f i PropSet.obj
 0001:000457cb       ?CompareCaseInsensitive@@YAHPBD0@Z 100467cb f   PropSet.obj
 0001:00045819       ?CompareNCaseInsensitive@@YAHPBD0I@Z 10046819 f   PropSet.obj
 0001:0004587c       ?grow@SString@@AAE_NI@Z    1004687c f   PropSet.obj
 0001:000458e0       ??8SString@@QBE_NPBD@Z     100468e0 f   PropSet.obj
 0001:0004590f       ?append@SString@@QAEAAV1@PBDID@Z 1004690f f   PropSet.obj
 0001:0004598f       ?insert@SString@@QAEAAV1@IPBDI@Z 1004698f f   PropSet.obj
 0001:00045a08       ?remove@SString@@QAEXII@Z  10046a08 f   PropSet.obj
 0001:00045a55       ?search@SString@@QBEHPBDI@Z 10046a55 f   PropSet.obj
 0001:00045a80       ?StringAllocate@SContainer@@SAPADPBDI@Z 10046a80 f   PropSet.obj
 0001:00045ac8       ??0PropSet@@QAE@XZ         10046ac8 f   PropSet.obj
 0001:00045adf       ?contains@VarChain@@QBE_NPBD@Z 10046adf f i PropSet.obj
 0001:00045b17       ?Clear@PropSet@@QAEXXZ     10046b17 f   PropSet.obj
 0001:00045b64       ?ToString@PropSet@@QBEPADXZ 10046b64 f   PropSet.obj
 0001:00045d27       ?Clear@WordList@@QAEXXZ    10046d27 f   PropSet.obj
 0001:00045d50       _cmpString                 10046d50 f   PropSet.obj
 0001:00045d7c       ?InList@WordList@@QAE_NPBD@Z 10046d7c f   PropSet.obj
 0001:00045e6b       ?InListAbbreviated@WordList@@QAE_NPBDD@Z 10046e6b f   PropSet.obj
 0001:00045f8a       ??0SString@@QAE@PBDII@Z    10046f8a f i PropSet.obj
 0001:00045fda       ?assign@SString@@AAEAAV1@PBDI@Z 10046fda f   PropSet.obj
 0001:00046054       ??1PropSet@@QAE@XZ         10047054 f   PropSet.obj
 0001:00046060       ?Set@PropSet@@QAEXPBD0HH@Z 10047060 f   PropSet.obj
 0001:0004614c       ?Get@PropSet@@QBE?AVSString@@PBD@Z 1004714c f   PropSet.obj
 0001:0004633a       ?GetExpanded@PropSet@@QBE?AVSString@@PBD@Z 1004733a f   PropSet.obj
 0001:0004638b       ?GetInt@PropSet@@QBEHPBDH@Z 1004738b f   PropSet.obj
 0001:000463de       ?Set@WordList@@QAEXPBD@Z   100473de f   PropSet.obj
 0001:0004640c       ?Init@RESearch@@AAEXXZ     1004740c f   RESearch.obj
 0001:00046431       ?Clear@RESearch@@AAEXXZ    10047431 f   RESearch.obj
 0001:00046455       ?GrabMatches@RESearch@@QAE_NAAVCharacterIndexer@@@Z 10047455 f   RESearch.obj
 0001:000464ca       ?ChSet@RESearch@@AAEXE@Z   100474ca f   RESearch.obj
 0001:000464e9       ?ChSetWithCase@RESearch@@AAEXE_N@Z 100474e9 f   RESearch.obj
 0001:00046534       ?escapeValue@@YA?BEE@Z     10047534 f   RESearch.obj
 0001:000465e4       ?GetBackslashExpression@RESearch@@AAEHPBDAAH@Z 100475e4 f   RESearch.obj
 0001:00046784       ?Compile@RESearch@@QAEPBDPBDH_N1@Z 10047784 f   RESearch.obj
 0001:00046c8d       ?PMatch@RESearch@@AAEHAAVCharacterIndexer@@HHPAD@Z 10047c8d f   RESearch.obj
 0001:00046ee9       ??0RESearch@@QAE@PAVCharClassify@@@Z 10047ee9 f   RESearch.obj
 0001:00046f01       ??1RESearch@@QAE@XZ        10047f01 f   RESearch.obj
 0001:00046f06       ?Execute@RESearch@@QAEHAAVCharacterIndexer@@HH@Z 10047f06 f   RESearch.obj
 0001:00046fb1       ?RunFromPosition@RunStyles@@QAEHH@Z 10047fb1 f   RunStyles.obj
 0001:00046fe6       ??_G?$SplitVector@H@@QAEPAXI@Z 10047fe6 f i RunStyles.obj
 0001:00046fe6       ??_GSplitVectorWithRangeAdd@@QAEPAXI@Z 10047fe6 f i CellBuffer.obj
 0001:00047008       ?Length@RunStyles@@QBEHXZ  10048008 f   RunStyles.obj
 0001:00047018       ?ValueAt@RunStyles@@QBEHH@Z 10048018 f   RunStyles.obj
 0001:00047033       ?StartRun@RunStyles@@QAEHH@Z 10048033 f   RunStyles.obj
 0001:0004704d       ?EndRun@RunStyles@@QAEHH@Z 1004804d f   RunStyles.obj
 0001:00047068       ?SplitRun@RunStyles@@QAEHH@Z 10048068 f   RunStyles.obj
 0001:000470b6       ?RemoveRun@RunStyles@@QAEXH@Z 100480b6 f   RunStyles.obj
 0001:000470d6       ?RemoveRunIfEmpty@RunStyles@@QAEXH@Z 100480d6 f   RunStyles.obj
 0001:0004711a       ?RemoveRunIfSameAsPrevious@RunStyles@@QAEXH@Z 1004811a f   RunStyles.obj
 0001:00047160       ??0RunStyles@@QAE@XZ       10048160 f   RunStyles.obj
 0001:000471d4       ??1RunStyles@@QAE@XZ       100481d4 f   RunStyles.obj
 0001:00047204       ?FillRange@RunStyles@@QAE_NAAHH0@Z 10048204 f   RunStyles.obj
 0001:00047300       ?SetValueAt@RunStyles@@QAEXHH@Z 10048300 f   RunStyles.obj
 0001:0004731f       ?InsertSpace@RunStyles@@QAEXHH@Z 1004831f f   RunStyles.obj
 0001:000473a1       ?DeleteRange@RunStyles@@QAEXHH@Z 100483a1 f   RunStyles.obj
 0001:00047429       ??0Accessor@@QAE@XZ        10048429 f i ScintillaBase.obj
 0001:0004744a       ??0DocumentAccessor@@QAE@PAVDocument@@AAVPropSet@@PAX@Z 1004844a f i ScintillaBase.obj
 0001:000474ad       ?GetPropertyInt@DocumentAccessor@@UAEHPBDH@Z 100484ad f i ScintillaBase.obj
 0001:000474b8       ?GetProperties@DocumentAccessor@@UAEPADXZ 100484b8 f i ScintillaBase.obj
 0001:000474c3       ?SetFlags@DocumentAccessor@@UAEXDD@Z 100484c3 f i ScintillaBase.obj
 0001:000474da       ?GetStartSegment@DocumentAccessor@@UAEIXZ 100484da f i ScintillaBase.obj
 0001:000474e1       ??_GDocumentAccessor@@UAEPAXI@Z 100484e1 f i ScintillaBase.obj
 0001:000474e1       ??_EDocumentAccessor@@UAEPAXI@Z 100484e1 f i ScintillaBase.obj
 0001:000474fd       ??0ScintillaBase@@IAE@XZ   100484fd f   ScintillaBase.obj
 0001:000475d6       ?Finalise@ScintillaBase@@MAEXXZ 100485d6 f   ScintillaBase.obj
 0001:000475ea       ?RefreshColourPalette@ScintillaBase@@MAEXAAVPalette@@_N@Z 100485ea f   ScintillaBase.obj
 0001:00047611       ?Command@ScintillaBase@@IAEXH@Z 10048611 f   ScintillaBase.obj
 0001:00047680       ?AutoCompleteCancel@ScintillaBase@@IAEXXZ 10048680 f   ScintillaBase.obj
 0001:000476dc       ?AutoCompleteMove@ScintillaBase@@IAEXH@Z 100486dc f   ScintillaBase.obj
 0001:000476e7       ?AutoCompleteMoveToCurrentWord@ScintillaBase@@IAEXXZ 100486e7 f   ScintillaBase.obj
 0001:00047787       ?AutoCompleteCharacterDeleted@ScintillaBase@@IAEXXZ 10048787 f   ScintillaBase.obj
 0001:000477fe       ?AutoCompleteCompleted@ScintillaBase@@IAEXXZ 100487fe f   ScintillaBase.obj
 0001:000479e4       ?AutoCompleteGetCurrent@ScintillaBase@@IAEHXZ 100489e4 f   ScintillaBase.obj
 0001:00047a07       ?CallTipShow@ScintillaBase@@IAEXVPoint@@PBD@Z 10048a07 f   ScintillaBase.obj
 0001:00047b15       ?CallTipClick@ScintillaBase@@IAEXXZ 10048b15 f   ScintillaBase.obj
 0001:00047b5a       ?ContextMenu@ScintillaBase@@IAEXVPoint@@@Z 10048b5a f   ScintillaBase.obj
 0001:00047ce9       ?CancelModes@ScintillaBase@@MAEXXZ 10048ce9 f   ScintillaBase.obj
 0001:00047d04       ?ButtonDown@ScintillaBase@@MAEXVPoint@@I_N11@Z 10048d04 f   ScintillaBase.obj
 0001:00047d2d       ?SetLexer@ScintillaBase@@IAEXK@Z 10048d2d f   ScintillaBase.obj
 0001:00047d5b       ?SetLexerLanguage@ScintillaBase@@IAEXPBD@Z 10048d5b f   ScintillaBase.obj
 0001:00047d9a       ?Colourise@ScintillaBase@@IAEXHH@Z 10048d9a f   ScintillaBase.obj
 0001:00047f02       ?NotifyStyleToNeeded@ScintillaBase@@MAEXH@Z 10048f02 f   ScintillaBase.obj
 0001:00047f5d       ??1ScintillaBase@@MAE@XZ   10048f5d f   ScintillaBase.obj
 0001:00047ff5       ?KeyCommand@ScintillaBase@@MAEHI@Z 10048ff5 f   ScintillaBase.obj
 0001:0004814d       ?AutoCompleteDoubleClick@ScintillaBase@@KAXPAX@Z 1004914d f   ScintillaBase.obj
 0001:00048156       ?AutoCompleteStart@ScintillaBase@@IAEXHPBD@Z 10049156 f   ScintillaBase.obj
 0001:00048501       ?AutoCompleteCharacterAdded@ScintillaBase@@IAEXD@Z 10049501 f   ScintillaBase.obj
 0001:00048545       ?WndProc@ScintillaBase@@UAEJIKJ@Z 10049545 f   ScintillaBase.obj
 0001:00048acd       ??_EScintillaBase@@MAEPAXI@Z 10049acd f i ScintillaBase.obj
 0001:00048acd       ??_GScintillaBase@@MAEPAXI@Z 10049acd f i ScintillaBase.obj
 0001:00048ae9       ?AddCharUTF@ScintillaBase@@MAEXPADI_N@Z 10049ae9 f   ScintillaBase.obj
 0001:00048b5d       _IsEqualGUID               10049b5d f i ScintillaWin.obj
 0001:00048b75       ?DragIsRectangularOK@ScintillaWin@@QAE_NG@Z 10049b75 f i ScintillaWin.obj
 0001:00048b91       ??1ScintillaWin@@EAE@XZ    10049b91 f   ScintillaWin.obj
 0001:00048b9c       ?Initialise@ScintillaWin@@EAEXXZ 10049b9c f   ScintillaWin.obj
 0001:00048baf       ?DragThreshold@ScintillaWin@@EAE_NVPoint@@0@Z 10049baf f   ScintillaWin.obj
 0001:00048bf7       ?StartDrag@ScintillaWin@@EAEXXZ 10049bf7 f   ScintillaWin.obj
 0001:00048dbc       ?HandleComposition@ScintillaWin@@AAEJKJ@Z 10049dbc f   ScintillaWin.obj
 0001:000490a9       ?ValidCodePage@ScintillaWin@@EBE_NH@Z 1004a0a9 f   ScintillaWin.obj
 0001:000490e5       ?DefWndProc@ScintillaWin@@EAEJIKJ@Z 1004a0e5 f   ScintillaWin.obj
 0001:00049100       ?SetTicking@ScintillaWin@@EAEX_N@Z 1004a100 f   ScintillaWin.obj
 0001:00049162       ?SetIdle@ScintillaWin@@EAE_N_N@Z 1004a162 f   ScintillaWin.obj
 0001:000491c9       ?SetMouseCapture@ScintillaWin@@EAEX_N@Z 1004a1c9 f   ScintillaWin.obj
 0001:000491fd       ?HaveMouseCapture@ScintillaWin@@EAE_NXZ 1004a1fd f   ScintillaWin.obj
 0001:00049204       ?PaintContains@ScintillaWin@@EAE_NVPRectangle@@@Z 1004a204 f   ScintillaWin.obj
 0001:000492a2       ?ScrollText@ScintillaWin@@EAEXH@Z 1004a2a2 f   ScintillaWin.obj
 0001:000492d6       ?SetScrollInfo@ScintillaWin@@EAEHHPBUtagSCROLLINFO@@H@Z 1004a2d6 f   ScintillaWin.obj
 0001:000492f1       ?GetScrollInfo@ScintillaWin@@EAE_NHPAUtagSCROLLINFO@@@Z 1004a2f1 f   ScintillaWin.obj
 0001:0004930d       ?ChangeScrollPos@ScintillaWin@@AAEXHH@Z 1004a30d f   ScintillaWin.obj
 0001:00049374       ?SetVerticalScrollPos@ScintillaWin@@EAEXXZ 1004a374 f   ScintillaWin.obj
 0001:00049382       ?SetHorizontalScrollPos@ScintillaWin@@EAEXXZ 1004a382 f   ScintillaWin.obj
 0001:00049390       ?ModifyScrollBars@ScintillaWin@@EAE_NHH@Z 1004a390 f   ScintillaWin.obj
 0001:000494c8       ?NotifyChange@ScintillaWin@@EAEXXZ 1004a4c8 f   ScintillaWin.obj
 0001:000494fb       ?NotifyFocus@ScintillaWin@@EAEX_N@Z 1004a4fb f   ScintillaWin.obj
 0001:00049541       ?GetCtrlID@ScintillaWin@@EAEHXZ 1004a541 f   ScintillaWin.obj
 0001:0004954b       ?NotifyParent@ScintillaWin@@EAEXUSCNotification@@@Z 1004a54b f   ScintillaWin.obj
 0001:00049588       ?NotifyDoubleClick@ScintillaWin@@EAEXVPoint@@_N11@Z 1004a588 f   ScintillaWin.obj
 0001:000495d3       ?CanPaste@ScintillaWin@@EAE_NXZ 1004a5d3 f   ScintillaWin.obj
 0001:00049610       ??0GlobalMemory@@QAE@PAX@Z 1004a610 f i ScintillaWin.obj
 0001:00049631       ?Allocate@GlobalMemory@@QAEXI@Z 1004a631 f i ScintillaWin.obj
 0001:00049654       ?Unlock@GlobalMemory@@QAEPAXXZ 1004a654 f i ScintillaWin.obj
 0001:0004966d       ?InsertPasteText@ScintillaWin@@AAEXPBDHH_N1@Z 1004a66d f   ScintillaWin.obj
 0001:0004978e       ?Paste@ScintillaWin@@EAEXXZ 1004a78e f   ScintillaWin.obj
 0001:00049a08       ?AddToPopUp@ScintillaWin@@EAEXPBDH_N@Z 1004aa08 f   ScintillaWin.obj
 0001:00049a3f       ?FormatEnumerator_AddRef@@YGKPAVFormatEnumerator@@@Z 1004aa3f f   ScintillaWin.obj
 0001:00049a4c       ?FormatEnumerator_Release@@YGKPAVFormatEnumerator@@@Z 1004aa4c f   ScintillaWin.obj
 0001:00049a66       ?FormatEnumerator_Next@@YGJPAVFormatEnumerator@@KPAUtagFORMATETC@@PAK@Z 1004aa66 f   ScintillaWin.obj
 0001:00049ac9       ?FormatEnumerator_Skip@@YGJPAVFormatEnumerator@@K@Z 1004aac9 f   ScintillaWin.obj
 0001:00049ad9       ?FormatEnumerator_Reset@@YGJPAVFormatEnumerator@@@Z 1004aad9 f   ScintillaWin.obj
 0001:00049ae6       ??0FormatEnumerator@@QAE@HQAGH@Z 1004aae6 f   ScintillaWin.obj
 0001:00049b20       ?DropSource_QueryContinueDrag@@YGJPAVDropSource@@HK@Z 1004ab20 f   ScintillaWin.obj
 0001:00049b45       ?DropSource_GiveFeedback@@YGJPAVDropSource@@K@Z 1004ab45 f   ScintillaWin.obj
 0001:00049b4d       ??0DropSource@@QAE@XZ      1004ab4d f   ScintillaWin.obj
 0001:00049b5a       ?DataObject_GetDataHere@@YGJPAVDataObject@@PAUtagFORMATETC@@PAUtagSTGMEDIUM@@@Z 1004ab5a f   ScintillaWin.obj
 0001:00049b62       ?DataObject_QueryGetData@@YGJPAVDataObject@@PAUtagFORMATETC@@@Z 1004ab62 f   ScintillaWin.obj
 0001:00049bd3       ?DataObject_GetCanonicalFormatEtc@@YGJPAVDataObject@@PAUtagFORMATETC@@1@Z 1004abd3 f   ScintillaWin.obj
 0001:00049c06       ?DataObject_SetData@@YGJPAVDataObject@@PAUtagFORMATETC@@PAUtagSTGMEDIUM@@H@Z 1004ac06 f   ScintillaWin.obj
 0001:00049c0e       ?DataObject_DAdvise@@YGJPAVDataObject@@PAUtagFORMATETC@@KPAUIAdviseSink@@PAK@Z 1004ac0e f   ScintillaWin.obj
 0001:00049c16       ?DataObject_DUnadvise@@YGJPAVDataObject@@K@Z 1004ac16 f   ScintillaWin.obj
 0001:00049c16       ?DataObject_EnumDAdvise@@YGJPAVDataObject@@PAPAUIEnumSTATDATA@@@Z 1004ac16 f   ScintillaWin.obj
 0001:00049c1e       ??0DataObject@@QAE@XZ      1004ac1e f   ScintillaWin.obj
 0001:00049c2b       ??0DropTarget@@QAE@XZ      1004ac2b f   ScintillaWin.obj
 0001:00049c38       ?ImeStartComposition@ScintillaWin@@AAEXXZ 1004ac38 f   ScintillaWin.obj
 0001:00049db4       ?ImeEndComposition@ScintillaWin@@AAEXXZ 1004adb4 f   ScintillaWin.obj
 0001:00049db9       ?AddCharBytes@ScintillaWin@@AAEXDD@Z 1004adb9 f   ScintillaWin.obj
 0001:00049e7c       ?GetIntelliMouseParameters@ScintillaWin@@AAEXXZ 1004ae7c f   ScintillaWin.obj
 0001:00049e90       ?CopyToClipboard@ScintillaWin@@EAEXABVSelectionText@@@Z 1004ae90 f   ScintillaWin.obj
 0001:00049ff6       ?ScrollMessage@ScintillaWin@@AAEXI@Z 1004aff6 f   ScintillaWin.obj
 0001:0004a0aa       ?HorizontalScrollMessage@ScintillaWin@@AAEXI@Z 1004b0aa f   ScintillaWin.obj
 0001:0004a176       ?RealizeWindowPalette@ScintillaWin@@AAEX_N@Z 1004b176 f   ScintillaWin.obj
 0001:0004a208       ?FullPaintDC@ScintillaWin@@AAEXPAUHDC__@@@Z 1004b208 f   ScintillaWin.obj
 0001:0004a2be       ?IsCompatibleDC@ScintillaWin@@AAE_NPAUHDC__@@@Z 1004b2be f   ScintillaWin.obj
 0001:0004a344       ?EffectFromState@ScintillaWin@@AAEKK@Z 1004b344 f   ScintillaWin.obj
 0001:0004a368       ?QueryInterface@ScintillaWin@@QAGJABU_GUID@@PAPAX@Z 1004b368 f   ScintillaWin.obj
 0001:0004a3f4       ?Release@ScintillaWin@@QAGKXZ 1004b3f4 f   ScintillaWin.obj
 0001:0004a3f4       ?AddRef@ScintillaWin@@QAGKXZ 1004b3f4 f   ScintillaWin.obj
 0001:0004a3fa       ?DragEnter@ScintillaWin@@QAGJPAUIDataObject@@KU_POINTL@@PAK@Z 1004b3fa f   ScintillaWin.obj
 0001:0004a497       ?DragOver@ScintillaWin@@QAGJKU_POINTL@@PAK@Z 1004b497 f   ScintillaWin.obj
 0001:0004a536       ?DragLeave@ScintillaWin@@QAGJXZ 1004b536 f   ScintillaWin.obj
 0001:0004a574       ?Drop@ScintillaWin@@QAGJPAUIDataObject@@KU_POINTL@@PAK@Z 1004b574 f   ScintillaWin.obj
 0001:0004a7de       ?GetData@ScintillaWin@@QAGJPAUtagFORMATETC@@PAUtagSTGMEDIUM@@@Z 1004b7de f   ScintillaWin.obj
 0001:0004a8d8       ?Unregister@ScintillaWin@@SA_NXZ 1004b8d8 f   ScintillaWin.obj
 0001:0004a90a       ?HasCaretSizeChanged@ScintillaWin@@AAE_NXZ 1004b90a f   ScintillaWin.obj
 0001:0004a934       ?CreateSystemCaret@ScintillaWin@@AAEHXZ 1004b934 f   ScintillaWin.obj
 0001:0004a9df       ?DestroySystemCaret@ScintillaWin@@AAEHXZ 1004b9df f   ScintillaWin.obj
 0001:0004aa1f       ?CTWndProc@ScintillaWin@@CGJPAUHWND__@@IIJ@Z 1004ba1f f   ScintillaWin.obj
 0001:0004abc8       ?DirectFunction@ScintillaWin@@CAJPAV1@IKJ@Z 1004bbc8 f   ScintillaWin.obj
 0001:0004abe1       _Scintilla_DirectFunction@16 1004bbe1 f   ScintillaWin.obj
 0001:0004abfc       ?Scintilla_ReleaseResources@@YA_NXZ 1004bbfc f   ScintillaWin.obj
 0001:0004ac0d       ??_EScintillaWin@@EAEPAXI@Z 1004bc0d f i ScintillaWin.obj
 0001:0004ac0d       ??_GScintillaWin@@EAEPAXI@Z 1004bc0d f i ScintillaWin.obj
 0001:0004ac29       ??0ScintillaWin@@AAE@PAUHWND__@@@Z 1004bc29 f   ScintillaWin.obj
 0001:0004acec       ?Finalise@ScintillaWin@@EAEXXZ 1004bcec f   ScintillaWin.obj
 0001:0004ad32       ?UpdateSystemCaret@ScintillaWin@@EAEXXZ 1004bd32 f   ScintillaWin.obj
 0001:0004ad78       ?CreateCallTipWindow@ScintillaWin@@EAEXVPRectangle@@@Z 1004bd78 f   ScintillaWin.obj
 0001:0004addc       ?FormatEnumerator_QueryInterface@@YGJPAVFormatEnumerator@@ABU_GUID@@PAPAX@Z 1004bddc f   ScintillaWin.obj
 0001:0004ae2e       ?FormatEnumerator_Clone@@YGJPAVFormatEnumerator@@PAPAUIEnumFORMATETC@@@Z 1004be2e f   ScintillaWin.obj
 0001:0004ae85       ?DropTarget_QueryInterface@@YGJPAVDropTarget@@ABU_GUID@@PAPAX@Z 1004be85 f   ScintillaWin.obj
 0001:0004ae85       ?DataObject_QueryInterface@@YGJPAVDataObject@@ABU_GUID@@PAPAX@Z 1004be85 f   ScintillaWin.obj
 0001:0004ae85       ?DropSource_QueryInterface@@YGJPAVDropSource@@ABU_GUID@@PAPAX@Z 1004be85 f   ScintillaWin.obj
 0001:0004ae9c       ?DropTarget_Release@@YGKPAVDropTarget@@@Z 1004be9c f   ScintillaWin.obj
 0001:0004ae9c       ?DropTarget_AddRef@@YGKPAVDropTarget@@@Z 1004be9c f   ScintillaWin.obj
 0001:0004ae9c       ?DropSource_Release@@YGKPAVDropSource@@@Z 1004be9c f   ScintillaWin.obj
 0001:0004ae9c       ?DropSource_AddRef@@YGKPAVDropSource@@@Z 1004be9c f   ScintillaWin.obj
 0001:0004ae9c       ?DataObject_Release@@YGKPAVDataObject@@@Z 1004be9c f   ScintillaWin.obj
 0001:0004ae9c       ?DataObject_AddRef@@YGKPAVDataObject@@@Z 1004be9c f   ScintillaWin.obj
 0001:0004aeab       ?DataObject_GetData@@YGJPAVDataObject@@PAUtagFORMATETC@@PAUtagSTGMEDIUM@@@Z 1004beab f   ScintillaWin.obj
 0001:0004aec2       ?DataObject_EnumFormatEtc@@YGJPAVDataObject@@KPAPAUIEnumFORMATETC@@@Z 1004bec2 f   ScintillaWin.obj
 0001:0004af7b       ?DropTarget_DragEnter@@YGJPAVDropTarget@@PAUIDataObject@@KU_POINTL@@PAK@Z 1004bf7b f   ScintillaWin.obj
 0001:0004afca       ?DropTarget_DragOver@@YGJPAVDropTarget@@KU_POINTL@@PAK@Z 1004bfca f   ScintillaWin.obj
 0001:0004b016       ?DropTarget_DragLeave@@YGJPAVDropTarget@@@Z 1004c016 f   ScintillaWin.obj
 0001:0004b056       ?DropTarget_Drop@@YGJPAVDropTarget@@PAUIDataObject@@KU_POINTL@@PAK@Z 1004c056 f   ScintillaWin.obj
 0001:0004b0a5       ?FullPaint@ScintillaWin@@AAEXXZ 1004c0a5 f   ScintillaWin.obj
 0001:0004b0d1       ?SWndProc@ScintillaWin@@CGJPAUHWND__@@IIJ@Z 1004c0d1 f   ScintillaWin.obj
 0001:0004b1a8       ?WndPaint@ScintillaWin@@AAEJK@Z 1004c1a8 f   ScintillaWin.obj
 0001:0004b300       ?WndProc@ScintillaWin@@UAEJIKJ@Z 1004c300 f   ScintillaWin.obj
 0001:0004be7a       ?Copy@ScintillaWin@@EAEXXZ 1004ce7a f   ScintillaWin.obj
 0001:0004bed0       ?CopyAllowLine@ScintillaWin@@EAEXXZ 1004ced0 f   ScintillaWin.obj
 0001:0004bf19       ?Register@ScintillaWin@@SA_NPAUHINSTANCE__@@@Z 1004cf19 f   ScintillaWin.obj
 0001:0004bfe9       ?Scintilla_RegisterClasses@@YA_NPAX@Z 1004cfe9 f   ScintillaWin.obj
 0001:0004c009       _DllMain@12                1004d009 f   ScintillaWin.obj
 0001:0004c034       ??1Style@@QAE@XZ           1004d034 f   Style.obj
 0001:0004c073       ?Clear@Style@@QAEXVColourDesired@@0HPBDH_N222W4ecaseForced@1@222@Z 1004d073 f   Style.obj
 0001:0004c0e3       ?ClearTo@Style@@QAEXABV1@@Z 1004d0e3 f   Style.obj
 0001:0004c123       ?EquivalentFontTo@Style@@QBE_NPBV1@@Z 1004d123 f   Style.obj
 0001:0004c172       ?Realise@Style@@QAEXAAVSurface@@HPAV1@_N@Z 1004d172 f   Style.obj
 0001:0004c259       ??0Style@@QAE@XZ           1004d259 f   Style.obj
 0001:0004c2af       ??4Style@@QAEAAV0@ABV0@@Z  1004d2af f   Style.obj
 0001:0004c320       ?GetCurrent@StyleContext@@QAEXPADI@Z 1004d320 f   StyleContext.obj
 0001:0004c39f       ?GetCurrentLowered@StyleContext@@QAEXPADI@Z 1004d39f f   StyleContext.obj
 0001:0004c3c5       ?UTF8Length@@YAIPB_WI@Z    1004d3c5 f   UniConversion.obj
 0001:0004c415       ?UTF8FromUTF16@@YAXPB_WIPADI@Z 1004d415 f   UniConversion.obj
 0001:0004c4e6       ?UTF16Length@@YAIPBDI@Z    1004d4e6 f   UniConversion.obj
 0001:0004c521       ?UTF16FromUTF8@@YAIPBDIPA_WI@Z 1004d521 f   UniConversion.obj
 0001:0004c600       ??0MarginStyle@@QAE@XZ     1004d600 f   ViewStyle.obj
 0001:0004c610       ??0FontNames@@QAE@XZ       1004d610 f   ViewStyle.obj
 0001:0004c638       ?Clear@FontNames@@QAEXXZ   1004d638 f   ViewStyle.obj
 0001:0004c65b       ?Save@FontNames@@QAEPBDPBD@Z 1004d65b f   ViewStyle.obj
 0001:0004c71d       ??_EStyle@@QAEPAXI@Z       1004d71d f i ViewStyle.obj
 0001:0004c766       ?RefreshColourPalette@ViewStyle@@QAEXAAVPalette@@_N@Z 1004d766 f   ViewStyle.obj
 0001:0004c8d0       ?Refresh@ViewStyle@@QAEXAAVSurface@@@Z 1004d8d0 f   ViewStyle.obj
 0001:0004ca60       ?AllocStyles@ViewStyle@@QAEXI@Z 1004da60 f   ViewStyle.obj
 0001:0004cb50       ?EnsureStyle@ViewStyle@@QAEXI@Z 1004db50 f   ViewStyle.obj
 0001:0004cb6a       ?SetStyleFontName@ViewStyle@@QAEXHPBD@Z 1004db6a f   ViewStyle.obj
 0001:0004cb88       ?ProtectionActive@ViewStyle@@QBE_NXZ 1004db88 f   ViewStyle.obj
 0001:0004cb8f       ?ValidStyle@ViewStyle@@QBE_NI@Z 1004db8f f   ViewStyle.obj
 0001:0004cb9d       ??0LineMarker@@QAE@XZ      1004db9d f i ViewStyle.obj
 0001:0004cbc5       ??1LineMarker@@QAE@XZ      1004dbc5 f i ViewStyle.obj
 0001:0004cbdd       ??4LineMarker@@QAEAAV0@ABV0@@Z 1004dbdd f i ViewStyle.obj
 0001:0004cc22       ??1FontNames@@QAE@XZ       1004dc22 f   ViewStyle.obj
 0001:0004cc37       ??1ViewStyle@@QAE@XZ       1004dc37 f   ViewStyle.obj
 0001:0004cc88       ?ResetDefaultStyle@ViewStyle@@QAEXXZ 1004dc88 f   ViewStyle.obj
 0001:0004ccca       ?ClearStyles@ViewStyle@@QAEXXZ 1004dcca f   ViewStyle.obj
 0001:0004cd2e       ?Init@ViewStyle@@QAEXI@Z   1004dd2e f   ViewStyle.obj
 0001:0004cfe0       ??0ViewStyle@@QAE@XZ       1004dfe0 f   ViewStyle.obj
 0001:0004d0fd       ??0ViewStyle@@QAE@ABV0@@Z  1004e0fd f   ViewStyle.obj
 0001:0004d521       ?ValueOfHex@ColourDesired@@SAID@Z 1004e521 f i XPM.obj
 0001:0004d55b       ?Set@ColourDesired@@QAEXPBD@Z 1004e55b f i XPM.obj
 0001:0004d618       ?ColourFromCode@XPM@@AAE?AVColourAllocated@@H@Z 1004e618 f   XPM.obj
 0001:0004d62c       ?FillRun@XPM@@AAEXPAVSurface@@HHHH@Z 1004e62c f   XPM.obj
 0001:0004d67f       ?Clear@XPM@@QAEXXZ         1004e67f f   XPM.obj
 0001:0004d6b7       ?RefreshColourPalette@XPM@@QAEXAAVPalette@@_N@Z 1004e6b7 f   XPM.obj
 0001:0004d6f5       ?CopyDesiredColours@XPM@@QAEXXZ 1004e6f5 f   XPM.obj
 0001:0004d724       ?Draw@XPM@@QAEXPAVSurface@@AAVPRectangle@@@Z 1004e724 f   XPM.obj
 0001:0004d815       ?LinesFormFromTextForm@XPM@@SAPAPBDPBD@Z 1004e815 f   XPM.obj
 0001:0004d8c4       ??0XPMSet@@QAE@XZ          1004e8c4 f   XPM.obj
 0001:0004d8d9       ?Get@XPMSet@@QAEPAVXPM@@H@Z 1004e8d9 f   XPM.obj
 0001:0004d906       ?GetHeight@XPMSet@@QAEHXZ  1004e906 f   XPM.obj
 0001:0004d93a       ?GetWidth@XPMSet@@QAEHXZ   1004e93a f   XPM.obj
 0001:0004d96e       ??1XPM@@QAE@XZ             1004e96e f   XPM.obj
 0001:0004d973       ?Init@XPM@@QAEXPBQBD@Z     1004e973 f   XPM.obj
 0001:0004db40       ?Clear@XPMSet@@QAEXXZ      1004eb40 f   XPM.obj
 0001:0004db88       ?Init@XPM@@QAEXPBD@Z       1004eb88 f   XPM.obj
 0001:0004dbe8       ??1XPMSet@@QAE@XZ          1004ebe8 f   XPM.obj
 0001:0004dbed       ??0XPM@@QAE@PBD@Z          1004ebed f   XPM.obj
 0001:0004dc0d       ?Add@XPMSet@@QAEXHPBD@Z    1004ec0d f   XPM.obj
 0001:0004dcec       _ImmReleaseContext@8       1004ecec f   imm32:IMM32.dll
 0001:0004dcf2       _ImmSetCompositionWindow@8 1004ecf2 f   imm32:IMM32.dll
 0001:0004dcf8       _ImmGetCompositionStringW@16 1004ecf8 f   imm32:IMM32.dll
 0001:0004dcfe       _ImmGetContext@4           1004ecfe f   imm32:IMM32.dll
 0001:0004dd04       _ImmSetCompositionFontA@8  1004ed04 f   imm32:IMM32.dll
 0001:0004dd0a       _ImmNotifyIME@16           1004ed0a f   imm32:IMM32.dll
 0001:0004dd20       _strchr                    1004ed20 f   LIBCMT:strchr.obj
 0001:0004dd26       ___from_strstr_to_strchr   1004ed26     LIBCMT:strchr.obj
 0001:0004dde0       _strncpy                   1004ede0 f   LIBCMT:strncpy.obj
 0001:0004df04       _strncmp                   1004ef04 f   LIBCMT:strncmp.obj
 0001:0004dfd0       _strlen                    1004efd0 f   LIBCMT:strlen.obj
 0001:0004e05b       @__security_check_cookie@4 1004f05b f   LIBCMT:secchk.obj
 0001:0004e06a       ??1type_info@@UAE@XZ       1004f06a f   LIBCMT:typinfo.obj
 0001:0004e078       ??_Gtype_info@@UAEPAXI@Z   1004f078 f i LIBCMT:typinfo.obj
 0001:0004e078       ??_Etype_info@@UAEPAXI@Z   1004f078 f i LIBCMT:typinfo.obj
 0001:0004e094       ??8type_info@@QBE_NABV0@@Z 1004f094 f   LIBCMT:typinfo.obj
 0001:0004e0af       ??3@YAXPAX@Z               1004f0af f   LIBCMT:delete.obj
 0001:0004e0b4       ?_JumpToContinuation@@YGXPAXPAUEHRegistrationNode@@@Z 1004f0b4 f   LIBCMT:trnsctrl.obj
 0001:0004e0e4       ?_CallMemberFunction0@@YGXPAX0@Z 1004f0e4 f   LIBCMT:trnsctrl.obj
 0001:0004e0e4       ?_CallMemberFunction2@@YGXPAX00H@Z 1004f0e4 f   LIBCMT:trnsctrl.obj
 0001:0004e0e4       ?_CallMemberFunction1@@YGXPAX00@Z 1004f0e4 f   LIBCMT:trnsctrl.obj
 0001:0004e0eb       ?_UnwindNestedFrames@@YGXPAUEHRegistrationNode@@PAUEHExceptionRecord@@@Z 1004f0eb f   LIBCMT:trnsctrl.obj
 0001:0004e13d       ___CxxFrameHandler3        1004f13d f   LIBCMT:trnsctrl.obj
 0001:0004e1a3       ?_CallSETranslator@@YAHPAUEHExceptionRecord@@PAUEHRegistrationNode@@PAX2PBU_s_FuncInfo@@H1@Z 1004f1a3 f   LIBCMT:trnsctrl.obj
 0001:0004e315       ?_GetRangeOfTrysToCheck@@YAPBU_s_TryBlockMapEntry@@PBU_s_FuncInfo@@HHPAI1@Z 1004f315 f   LIBCMT:trnsctrl.obj
 0001:0004e388       __CreateFrameInfo          1004f388 f   LIBCMT:trnsctrl.obj
 0001:0004e3b0       __IsExceptionObjectToBeDestroyed 1004f3b0 f   LIBCMT:trnsctrl.obj
 0001:0004e3d1       __FindAndUnlinkFrame       1004f3d1 f   LIBCMT:trnsctrl.obj
 0001:0004e41d       ?_CallCatchBlock2@@YAPAXPAUEHRegistrationNode@@PBU_s_FuncInfo@@PAXHK@Z 1004f41d f   LIBCMT:trnsctrl.obj
 0001:0004e47b       __EH_prolog3               1004f47b f   LIBCMT:ehprolg3.obj
 0001:0004e4ae       __EH_prolog3_catch         1004f4ae f   LIBCMT:ehprolg3.obj
 0001:0004e4e4       __EH_prolog3_GS            1004f4e4 f   LIBCMT:ehprolg3.obj
 0001:0004e51a       __EH_prolog3_catch_GS      1004f51a f   LIBCMT:ehprolg3.obj
 0001:0004e553       __EH_epilog3               1004f553 f   LIBCMT:ehprolg3.obj
 0001:0004e567       __EH_epilog3_GS            1004f567 f   LIBCMT:ehprolg3.obj
 0001:0004e576       __EH_epilog3_catch_GS      1004f576 f   LIBCMT:ehprolg3.obj
 0001:0004e590       _strcpy                    1004f590 f   LIBCMT:strcat.obj
 0001:0004e5a0       _strcat                    1004f5a0 f   LIBCMT:strcat.obj
 0001:0004e688       ??0bad_alloc@std@@QAE@XZ   1004f688 f i LIBCMT:new.obj
 0001:0004e6a1       ??1bad_alloc@std@@UAE@XZ   1004f6a1 f i LIBCMT:new.obj
 0001:0004e6ac       ??_Ebad_alloc@std@@UAEPAXI@Z 1004f6ac f i LIBCMT:new.obj
 0001:0004e6ac       ??_Gbad_alloc@std@@UAEPAXI@Z 1004f6ac f i LIBCMT:new.obj
 0001:0004e6ce       ??0bad_alloc@std@@QAE@ABV01@@Z 1004f6ce f i LIBCMT:new.obj
 0001:0004e6e6       ??2@YAPAXI@Z               1004f6e6 f   LIBCMT:new.obj
 0001:0004e750       _memmove                   1004f750 f   LIBCMT:memmove.obj
 0001:0004eab5       ??_L@YGXPAXIHP6EX0@Z1@Z    1004fab5 f   LIBCMT:ehvecctr.obj
 0001:0004eb1a       ?__ArrayUnwind@@YGXPAXIHP6EX0@Z@Z 1004fb1a f   LIBCMT:ehvecdtr.obj
 0001:0004eb78       ??_M@YGXPAXIHP6EX0@Z@Z     1004fb78 f   LIBCMT:ehvecdtr.obj
 0001:0004ebdb       ??0_LocaleUpdate@@QAE@PAUlocaleinfo_struct@@@Z 1004fbdb f i LIBCMT:_ctype.obj
 0001:0004ec5d       __isalpha_l                1004fc5d f i LIBCMT:_ctype.obj
 0001:0004ecb1       _isalpha                   1004fcb1 f i LIBCMT:_ctype.obj
 0001:0004ecdc       __isupper_l                1004fcdc f i LIBCMT:_ctype.obj
 0001:0004ed2b       _isupper                   1004fd2b f i LIBCMT:_ctype.obj
 0001:0004ed54       __islower_l                1004fd54 f i LIBCMT:_ctype.obj
 0001:0004eda3       _islower                   1004fda3 f i LIBCMT:_ctype.obj
 0001:0004edcc       __isdigit_l                1004fdcc f i LIBCMT:_ctype.obj
 0001:0004ee1b       _isdigit                   1004fe1b f i LIBCMT:_ctype.obj
 0001:0004ee44       __isxdigit_l               1004fe44 f i LIBCMT:_ctype.obj
 0001:0004ee98       _isxdigit                  1004fe98 f i LIBCMT:_ctype.obj
 0001:0004eec3       __isspace_l                1004fec3 f i LIBCMT:_ctype.obj
 0001:0004ef12       _isspace                   1004ff12 f i LIBCMT:_ctype.obj
 0001:0004ef3b       __ispunct_l                1004ff3b f i LIBCMT:_ctype.obj
 0001:0004ef8a       _ispunct                   1004ff8a f i LIBCMT:_ctype.obj
 0001:0004efb3       __isalnum_l                1004ffb3 f i LIBCMT:_ctype.obj
 0001:0004f007       _isalnum                   10050007 f i LIBCMT:_ctype.obj
 0001:0004f032       __isgraph_l                10050032 f i LIBCMT:_ctype.obj
 0001:0004f086       _isgraph                   10050086 f i LIBCMT:_ctype.obj
 0001:0004f0b1       __iscntrl_l                100500b1 f i LIBCMT:_ctype.obj
 0001:0004f100       _iscntrl                   10050100 f i LIBCMT:_ctype.obj
 0001:0004f129       __purecall                 10050129 f   LIBCMT:purevirt.obj
 0001:0004f160       _memcpy                    10050160 f   LIBCMT:memcpy.obj
 0001:0004f4c5       _sprintf                   100504c5 f   LIBCMT:sprintf.obj
 0001:0004f540       _memset                    10050540 f   LIBCMT:memset.obj
 0001:0004f5ba       _abs                       100505ba f   LIBCMT:abs.obj
 0001:0004f5d0       _strncat                   100505d0 f   LIBCMT:strncat.obj
 0001:0004f705       __toupper_l                10050705 f   LIBCMT:toupper.obj
 0001:0004f81d       _toupper                   1005081d f   LIBCMT:toupper.obj
 0001:0004f844       __tolower_l                10050844 f   LIBCMT:tolower.obj
 0001:0004f95b       _tolower                   1005095b f   LIBCMT:tolower.obj
 0001:0004fa3b       ___onexitinit              10050a3b f   LIBCMT:onexit.obj
 0001:0004fa6a       __onexit                   10050a6a f   LIBCMT:onexit.obj
 0001:0004faa6       _atexit                    10050aa6 f   LIBCMT:onexit.obj
 0001:0004fac0       _strcmp                    10050ac0 f   LIBCMT:strcmp.obj
 0001:0004fb48       _atol                      10050b48 f   LIBCMT:atox.obj
 0001:0004fb59       _atoi                      10050b59 f   LIBCMT:atox.obj
 0001:0004fb60       _strstr                    10050b60 f   LIBCMT:strstr.obj
 0001:0004fbe6       _memcmp                    10050be6 f   LIBCMT:memcmp.obj
 0001:00051270       __alloca_probe             10052270     LIBCMT:chkstk.obj
 0001:00051270       __chkstk                   10052270 f   LIBCMT:chkstk.obj
 0001:0005129b       ___inittime                1005229b f   LIBCMT:clock.obj
 0001:000512d2       __cfltcvt_init             100522d2 f   LIBCMT:fpinit.obj
 0001:00051332       __fpmath                   10052332 f   LIBCMT:fpinit.obj
 0001:00051350       _abort                     10052350 f   LIBCMT:abort.obj
 0001:00051443       __set_abort_behavior       10052443 f   LIBCMT:abort.obj
 0001:00051530       _qsort                     10052530 f   LIBCMT:qsort.obj
 0001:000517d7       ??_V@YAXPAX@Z              100527d7 f   LIBCMT:delete2.obj
 0001:000517dc       ??_U@YAPAXI@Z              100527dc f   LIBCMT:new2.obj
 0001:000517e1       __CRT_INIT@12              100527e1 f   LIBCMT:dllcrt0.obj
 0001:00051ab0       __DllMainCRTStartup@12     10052ab0 f   LIBCMT:dllcrt0.obj
 0001:00051ad1       ___report_gsfailure        10052ad1 f   LIBCMT:gs_report.obj
 0001:00051bd5       ?_Type_info_dtor@type_info@@CAXPAV1@@Z 10052bd5 f   LIBCMT:typname.obj
 0001:00051c45       _free                      10052c45 f   LIBCMT:free.obj
 0001:00051cd3       ??1bad_exception@std@@UAE@XZ 10052cd3 f i LIBCMT:frame.obj
 0001:00051cde       ??_Gbad_exception@std@@UAEPAXI@Z 10052cde f i LIBCMT:frame.obj
 0001:00051cde       ??_Ebad_exception@std@@UAEPAXI@Z 10052cde f i LIBCMT:frame.obj
 0001:00051d00       ___TypeMatch               10052d00 f   LIBCMT:frame.obj
 0001:00051d5c       ___FrameUnwindFilter       10052d5c f   LIBCMT:frame.obj
 0001:00051da0       ___FrameUnwindToState      10052da0 f   LIBCMT:frame.obj
 0001:00051ec6       ___DestructExceptionObject 10052ec6 f   LIBCMT:frame.obj
 0001:00051f1a       ___AdjustPointer           10052f1a f   LIBCMT:frame.obj
 0001:0005219d       ___BuildCatchObjectHelper  1005319d f   LIBCMT:frame.obj
 0001:0005231c       ___BuildCatchObject        1005331c f   LIBCMT:frame.obj
 0001:00052861       ??0bad_exception@std@@QAE@ABV01@@Z 10053861 f i LIBCMT:frame.obj
 0001:00052879       ___InternalCxxFrameHandler 10053879 f   LIBCMT:frame.obj
 0001:000529c9       __encode_pointer           100539c9 f   LIBCMT:tidtable.obj
 0001:00052a37       __encoded_null             10053a37 f   LIBCMT:tidtable.obj
 0001:00052a40       __decode_pointer           10053a40 f   LIBCMT:tidtable.obj
 0001:00052aae       ___crtTlsAlloc@4           10053aae f   LIBCMT:tidtable.obj
 0001:00052ab7       ___set_flsgetvalue         10053ab7 f   LIBCMT:tidtable.obj
 0001:00052ae9       __mtterm                   10053ae9 f   LIBCMT:tidtable.obj
 0001:00052b26       __initptd                  10053b26 f   LIBCMT:tidtable.obj
 0001:00052be5       __getptd_noexit            10053be5 f   LIBCMT:tidtable.obj
 0001:00052c5c       __getptd                   10053c5c f   LIBCMT:tidtable.obj
 0001:00052c74       __freefls@4                10053c74 f   LIBCMT:tidtable.obj
 0001:00052d95       __freeptd                  10053d95 f   LIBCMT:tidtable.obj
 0001:00052dfe       __mtinit                   10053dfe f   LIBCMT:tidtable.obj
 0001:00052f82       ?terminate@@YAXXZ          10053f82 f   LIBCMT:hooks.obj
 0001:00052fbb       ?unexpected@@YAXXZ         10053fbb f   LIBCMT:hooks.obj
 0001:00052fce       ?_inconsistency@@YAXXZ     10053fce f   LIBCMT:hooks.obj
 0001:00053005       __initp_eh_hooks           10054005 f   LIBCMT:hooks.obj
 0001:00053020       __CallSettingFrame@12      10054020 f   LIBCMT:lowhelpr.obj
 0001:00053047       __NLG_Return               10054047     LIBCMT:lowhelpr.obj
 0001:0005306c       ??0exception@std@@QAE@ABQBD@Z 1005406c f   LIBCMT:stdexcpt.obj
 0001:000530ba       ??0exception@std@@QAE@ABQBDH@Z 100540ba f   LIBCMT:stdexcpt.obj
 0001:000530d2       ??0exception@std@@QAE@ABV01@@Z 100540d2 f   LIBCMT:stdexcpt.obj
 0001:0005312a       ??1exception@std@@UAE@XZ   1005412a f   LIBCMT:stdexcpt.obj
 0001:00053140       ?what@exception@std@@UBEPBDXZ 10054140 f   LIBCMT:stdexcpt.obj
 0001:0005314d       ??_Gexception@std@@UAEPAXI@Z 1005414d f i LIBCMT:stdexcpt.obj
 0001:0005314d       ??_Eexception@std@@UAEPAXI@Z 1005414d f i LIBCMT:stdexcpt.obj
 0001:00053169       _V6_HeapAlloc              10054169 f   LIBCMT:malloc.obj
 0001:000531b8       _malloc                    100541b8 f   LIBCMT:malloc.obj
 0001:0005327b       __initp_heap_handler       1005427b f   LIBCMT:handler.obj
 0001:00053285       __callnewh                 10054285 f   LIBCMT:handler.obj
 0001:000532a7       __CxxThrowException@8      100542a7 f   LIBCMT:throw.obj
 0001:00053378       __VEC_memcpy               10054378 f   LIBCMT:p4_memcpy.obj
 0001:0005345b       __sse2_mathfcns_init       1005445b f   LIBCMT:mathfcns.obj
 0001:00053470       __SEH_prolog4              10054470 f   LIBCMT:sehprolg4.obj
 0001:000534b5       __SEH_epilog4              100544b5 f   LIBCMT:sehprolg4.obj
 0001:000534d0       __except_handler4          100544d0 f   LIBCMT:chandler4.obj
 0001:00053874       ___updatetmbcinfo          10054874 f   LIBCMT:mbctype.obj
 0001:00053992       __setmbcp_nolock           10054992 f   LIBCMT:mbctype.obj
 0001:00053b6b       __setmbcp                  10054b6b f   LIBCMT:mbctype.obj
 0001:00053d05       ___initmbctable            10054d05 f   LIBCMT:mbctype.obj
 0001:00053d23       ___freetlocinfo            10054d23 f   LIBCMT:setlocal.obj
 0001:00053e63       ___addlocaleref            10054e63 f   LIBCMT:setlocal.obj
 0001:00053ee9       ___removelocaleref         10054ee9 f   LIBCMT:setlocal.obj
 0001:00053fb3       ___updatetlocinfo          10054fb3 f   LIBCMT:setlocal.obj
 0001:00054029       __isctype_l                10055029 f   LIBCMT:isctype.obj
 0001:000540df       __NMSG_WRITE               100550df f   LIBCMT:crt0msg.obj
 0001:0005427f       __FF_MSGBANNER             1005527f f   LIBCMT:crt0msg.obj
 0001:000542b8       __initp_misc_purevirt      100552b8 f   LIBCMT:inithelp.obj
 0001:000542c2       __flsbuf                   100552c2 f   LIBCMT:_flsbuf.obj
 0001:000544c3       __output_l                 100554c3 f   LIBCMT:output.obj
 0001:00054e57       __initp_misc_invarg        10055e57 f   LIBCMT:invarg.obj
 0001:00054e61       __invoke_watson            10055e61 f   LIBCMT:invarg.obj
 0001:00054f5d       __invalid_parameter        10055f5d f   LIBCMT:invarg.obj
 0001:00054f81       __get_errno_from_oserr     10055f81 f   LIBCMT:dosmap.obj
 0001:00054fbc       __errno                    10055fbc f   LIBCMT:dosmap.obj
 0001:00054fcf       ___doserrno                10055fcf f   LIBCMT:dosmap.obj
 0001:00054fe2       __dosmaperr                10055fe2 f   LIBCMT:dosmap.obj
 0001:00055057       __VEC_memzero              10056057 f   LIBCMT:p4_memset.obj
 0001:000550e6       __freea                    100560e6 f i LIBCMT:a_map.obj
 0001:000554a3       ___crtLCMapStringA         100564a3 f   LIBCMT:a_map.obj
 0001:000554e6       __isleadbyte_l             100564e6 f i LIBCMT:_wctype.obj
 0001:0005551c       _isleadbyte                1005651c f i LIBCMT:_wctype.obj
 0001:0005552a       __malloc_crt               1005652a f   LIBCMT:crtheap.obj
 0001:0005556a       __calloc_crt               1005656a f   LIBCMT:crtheap.obj
 0001:000555b2       __realloc_crt              100565b2 f   LIBCMT:crtheap.obj
 0001:000555fd       __msize                    100565fd f   LIBCMT:msize.obj
 0001:000556a0       __amsg_exit                100566a0 f   LIBCMT:crt0dat.obj
 0001:000556c4       ___crtCorExitProcess       100566c4 f   LIBCMT:crt0dat.obj
 0001:000556ea       ___crtExitProcess          100566ea f   LIBCMT:crt0dat.obj
 0001:000556ff       __lockexit                 100566ff f   LIBCMT:crt0dat.obj
 0001:00055708       __unlockexit               10056708 f   LIBCMT:crt0dat.obj
 0001:00055729       __initterm_e               10056729 f   LIBCMT:crt0dat.obj
 0001:00055749       __get_osplatform           10056749 f   LIBCMT:crt0dat.obj
 0001:00055780       __get_winmajor             10056780 f   LIBCMT:crt0dat.obj
 0001:000557bc       __cinit                    100567bc f   LIBCMT:crt0dat.obj
 0001:00055930       __exit                     10056930 f   LIBCMT:crt0dat.obj
 0001:00055941       __cexit                    10056941 f   LIBCMT:crt0dat.obj
 0001:00055950       __init_pointers            10056950 f   LIBCMT:crt0dat.obj
 0001:00055bc7       _strtol                    10056bc7 f   LIBCMT:strtol.obj
 0001:00055bf0       __aulldiv                  10056bf0 f   LIBCMT:ulldiv.obj
 0001:00055c60       __allmul                   10056c60 f   LIBCMT:llmul.obj
 0001:00055c94       __forcdecpt_l              10056c94 f   LIBCMT:cvt.obj
 0001:00055d05       __cropzeros_l              10056d05 f   LIBCMT:cvt.obj
 0001:00055d85       __positive                 10056d85 f   LIBCMT:cvt.obj
 0001:00055d9b       __fassign_l                10056d9b f   LIBCMT:cvt.obj
 0001:00055ddb       __fassign                  10056ddb f   LIBCMT:cvt.obj
 0001:00055e0f       __forcdecpt                10056e0f f   LIBCMT:cvt.obj
 0001:00055e1d       __cropzeros                10056e1d f   LIBCMT:cvt.obj
 0001:00055f98       __cftoe_l                  10056f98 f   LIBCMT:cvt.obj
 0001:00056066       __cftoe                    10057066 f   LIBCMT:cvt.obj
 0001:00056084       __cftoa_l                  10057084 f   LIBCMT:cvt.obj
 0001:000564ea       __cftof_l                  100574ea f   LIBCMT:cvt.obj
 0001:000565a3       __cftog_l                  100575a3 f   LIBCMT:cvt.obj
 0001:0005669b       __cfltcvt_l                1005769b f   LIBCMT:cvt.obj
 0001:00056721       __cfltcvt                  10057721 f   LIBCMT:cvt.obj
 0001:00056742       __initp_misc_cfltcvt_tab   10057742 f   LIBCMT:cmiscdat.obj
 0001:00056761       __setdefaultprecision      10057761 f   LIBCMT:fp8.obj
 0001:0005678a       __ms_p5_test_fdiv          1005778a f   LIBCMT:testfdiv.obj
 0001:000567c6       __ms_p5_mp_test_fdiv       100577c6 f   LIBCMT:testfdiv.obj
 0001:000567ef       __initp_misc_winsig        100577ef f   LIBCMT:winsig.obj
 0001:0005683c       ___get_sigabrt             1005783c f   LIBCMT:winsig.obj
 0001:00056849       _raise                     10057849 f   LIBCMT:winsig.obj
 0001:000569f9       __ioinit                   100579f9 f   LIBCMT:ioinit.obj
 0001:00056c39       __ioterm                   10057c39 f   LIBCMT:ioinit.obj
 0001:00056c85       __setenvp                  10057c85 f   LIBCMT:stdenvp.obj
 0001:00056ef8       __setargv                  10057ef8 f   LIBCMT:stdargv.obj
 0001:00056fb1       ___crtGetEnvironmentStringsA 10057fb1 f   LIBCMT:a_env.obj
 0001:000570e6       __RTC_Initialize           100580e6 f   LIBCMT:initsect.obj
 0001:0005710a       __RTC_Terminate            1005810a f   LIBCMT:initsect.obj
 0001:0005712e       ___heap_select             1005812e f   LIBCMT:heapinit.obj
 0001:00057189       __heap_init                10058189 f   LIBCMT:heapinit.obj
 0001:000571e3       __heap_term                100581e3 f   LIBCMT:heapinit.obj
 0001:00057257       __XcptFilter               10058257 f   LIBCMT:winxfltr.obj
 0001:000573b5       ___CppXcptFilter           100583b5 f   LIBCMT:winxfltr.obj
 0001:000573d0       ___security_init_cookie    100583d0 f   LIBCMT:gs_support.obj
 0001:00057464       __crt_debugger_hook        10058464 f   LIBCMT:dbghook.obj
 0001:0005746c       __mtinitlocks              1005846c f   LIBCMT:mlock.obj
 0001:000574b5       __mtdeletelocks            100584b5 f   LIBCMT:mlock.obj
 0001:0005750a       __unlock                   1005850a f   LIBCMT:mlock.obj
 0001:0005751f       __mtinitlocknum            1005851f f   LIBCMT:mlock.obj
 0001:000575e2       __lock                     100585e2 f   LIBCMT:mlock.obj
 0001:00057613       _strcpy_s                  10058613 f   LIBCMT:strcpy_s.obj
 0001:00057678       ___sbh_heap_init           10058678 f   LIBCMT:sbheap.obj
 0001:000576c0       ___sbh_find_block          100586c0 f   LIBCMT:sbheap.obj
 0001:000576eb       ___sbh_free_block          100586eb f   LIBCMT:sbheap.obj
 0001:000579ff       ___sbh_alloc_new_region    100589ff f   LIBCMT:sbheap.obj
 0001:00057aaf       ___sbh_alloc_new_group     10058aaf f   LIBCMT:sbheap.obj
 0001:00057bb5       ___sbh_resize_block        10058bb5 f   LIBCMT:sbheap.obj
 0001:00057e94       ___sbh_alloc_block         10058e94 f   LIBCMT:sbheap.obj
 0001:00058177       ?_ValidateWrite@@YAHPAXI@Z 10059177 f   LIBCMT:validate.obj
 0001:00058177       ?_ValidateExecute@@YAHP6GHXZ@Z 10059177 f   LIBCMT:validate.obj
 0001:00058177       ?_ValidateRead@@YAHPBXI@Z  10059177 f   LIBCMT:validate.obj
 0001:00058184       __global_unwind2           10059184 f   LIBCMT:exsup.obj
 0001:000581e9       __local_unwind2            100591e9 f   LIBCMT:exsup.obj
 0001:0005826d       __abnormal_termination     1005926d f   LIBCMT:exsup.obj
 0001:00058290       __NLG_Notify1              10059290 f   LIBCMT:exsup.obj
 0001:00058299       __NLG_Notify               10059299 f   LIBCMT:exsup.obj
 0001:000582b0       __NLG_Dispatch             100592b0     LIBCMT:exsup.obj
 0001:000582b0       __NLG_Dispatch2            100592b0     LIBCMT:exsup.obj
 0001:000582b8       __NLG_Call                 100592b8 f   LIBCMT:exsup.obj
 0001:000582ba       __NLG_Return2              100592ba     LIBCMT:exsup.obj
 0001:0005830b       __get_sse2_info            1005930b f   LIBCMT:cpu_disp.obj
 0001:0005836b       ___sse2_available_init     1005936b f   LIBCMT:cpu_disp.obj
 0001:00058378       __local_unwind4            10059378 f   LIBCMT:exsup4.obj
 0001:0005844e       __seh_longjmp_unwind4@4    1005944e f   LIBCMT:exsup4.obj
 0001:0005846a       @_EH4_CallFilterFunc@8     1005946a f   LIBCMT:exsup4.obj
 0001:00058481       @_EH4_TransferToHandler@8  10059481 f   LIBCMT:exsup4.obj
 0001:0005849a       @_EH4_GlobalUnwind@4       1005949a f   LIBCMT:exsup4.obj
 0001:000584b4       @_EH4_LocalUnwind@16       100594b4 f   LIBCMT:exsup4.obj
 0001:000584d0       __ValidateImageBase        100594d0 f   LIBCMT:pesect.obj
 0001:00058500       __FindPESection            10059500 f   LIBCMT:pesect.obj
 0001:00058550       __IsNonwritableInCurrentImage 10059550 f   LIBCMT:pesect.obj
 0001:000587c3       ___crtGetStringTypeA       100597c3 f   LIBCMT:a_str.obj
 0001:00058803       ___free_lc_time            10059803 f   LIBCMT:inittime.obj
 0001:00058993       ___free_lconv_num          10059993 f   LIBCMT:initnum.obj
 0001:000589d3       ___free_lconv_mon          100599d3 f   LIBCMT:initmon.obj
 0001:00058a5c       _strcat_s                  10059a5c f   LIBCMT:strcat_s.obj
 0001:00058ad0       _strcspn                   10059ad0 f   LIBCMT:strcspn.obj
 0001:00058b16       _strncpy_s                 10059b16 f   LIBCMT:strncpy_s.obj
 0001:00058bd0       _strpbrk                   10059bd0 f   LIBCMT:strpbrk.obj
 0001:00058c10       ___crtMessageBoxA          10059c10 f   LIBCMT:crtmbox.obj
 0001:00058dcd       __set_error_mode           10059dcd f   LIBCMT:errmode.obj
 0001:00058e13       __lseeki64_nolock          10059e13 f   LIBCMT:lseeki64.obj
 0001:00058e96       __lseeki64                 10059e96 f   LIBCMT:lseeki64.obj
 0001:00058faf       __write_nolock             10059faf f   LIBCMT:write.obj
 0001:00059575       __write                    1005a575 f   LIBCMT:write.obj
 0001:00059651       __getbuf                   1005a651 f   LIBCMT:_getbuf.obj
 0001:00059695       __isatty                   1005a695 f   LIBCMT:isatty.obj
 0001:000596f3       ___iob_func                1005a6f3 f   LIBCMT:_file.obj
 0001:000596f9       ___initstdio               1005a6f9 f   LIBCMT:_file.obj
 0001:000597aa       ___endstdio                1005a7aa f   LIBCMT:_file.obj
 0001:000597ca       __lock_file                1005a7ca f   LIBCMT:_file.obj
 0001:00059806       __lock_file2               1005a806 f   LIBCMT:_file.obj
 0001:00059834       __unlock_file              1005a834 f   LIBCMT:_file.obj
 0001:0005986a       __unlock_file2             1005a86a f   LIBCMT:_file.obj
 0001:00059894       __fileno                   1005a894 f   LIBCMT:fileno.obj
 0001:000598c1       __get_printf_count_output  1005a8c1 f   LIBCMT:printf.obj
 0001:000598d7       __wctomb_s_l               1005a8d7 f   LIBCMT:wctomb.obj
 0001:00059a36       _wctomb_s                  1005aa36 f   LIBCMT:wctomb.obj
 0001:00059a60       __aulldvrm                 1005aa60 f   LIBCMT:ulldvrm.obj
 0001:00059af5       ___ansicp                  1005aaf5 f   LIBCMT:convrtcp.obj
 0001:00059b3c       ___convertcp               1005ab3c f   LIBCMT:convrtcp.obj
 0001:00059cf0       __alloca_probe_16          1005acf0 f   LIBCMT:alloca16.obj
 0001:00059d06       __alloca_probe_8           1005ad06     LIBCMT:alloca16.obj
 0001:00059d1c       __calloc_impl              1005ad1c f   LIBCMT:calloc.obj
 0001:00059e3a       _realloc                   1005ae3a f   LIBCMT:realloc.obj
 0001:0005a055       __initp_misc_rand_s        1005b055 f   LIBCMT:rand_s.obj
 0001:0005a05f       __initp_misc_initcrit      1005b05f f   LIBCMT:initcrit.obj
 0001:0005a079       ___crtInitCritSecAndSpinCount 1005b079 f   LIBCMT:initcrit.obj
 0001:0005a140       _strrchr                   1005b140 f   LIBCMT:strrchr.obj
 0001:0005a16d       __atodbl_l                 1005b16d f   LIBCMT:atodbl.obj
 0001:0005a213       __atoflt_l                 1005b213 f   LIBCMT:atodbl.obj
 0001:0005a2b9       __fptostr                  1005b2b9 f   LIBCMT:_fptostr.obj
 0001:0005a376       ___dtold                   1005b376 f   LIBCMT:cfout.obj
 0001:0005a431       __fltout2                  1005b431 f   LIBCMT:cfout.obj
 0001:0005a4c0       __alldvrm                  1005b4c0 f   LIBCMT:lldvrm.obj
 0001:0005a5a0       __aullshr                  1005b5a0 f   LIBCMT:ullshr.obj
 0001:0005a5bf       __fptrap                   1005b5bf f   LIBCMT:crt0fp.obj
 0001:0005a5c8       __controlfp_s              1005b5c8 f   LIBCMT:contrlfp.obj
 0001:0005a683       __ismbblead                1005b683 f   LIBCMT:ismbbyte.obj
 0001:0005a696       __free_osfhnd              1005b696 f   LIBCMT:osfinfo.obj
 0001:0005a717       __get_osfhandle            1005b717 f   LIBCMT:osfinfo.obj
 0001:0005a788       ___lock_fhandle            1005b788 f   LIBCMT:osfinfo.obj
 0001:0005a828       __unlock_fhandle           1005b828 f   LIBCMT:osfinfo.obj
 0001:0005a84a       __putwch_nolock            1005b84a f   LIBCMT:putwch.obj
 0001:0005a90c       __mbtowc_l                 1005b90c f   LIBCMT:mbtowc.obj
 0001:0005aa1f       _mbtowc                    1005ba1f f   LIBCMT:mbtowc.obj
 0001:0005aa36       __fcloseall                1005ba36 f   LIBCMT:closeall.obj
 0001:0005aad5       __flush                    1005bad5 f   LIBCMT:fflush.obj
 0001:0005ab37       __fflush_nolock            1005bb37 f   LIBCMT:fflush.obj
 0001:0005ac53       __flushall                 1005bc53 f   LIBCMT:fflush.obj
 0001:0005ac5c       __ld12tod                  1005bc5c f   LIBCMT:intrncvt.obj
 0001:0005b19e       __ld12tof                  1005c19e f   LIBCMT:intrncvt.obj
 0001:0005b6e0       ___strgtold12_l            1005c6e0 f   LIBCMT:strgtold.obj
 0001:0005bda0       _$I10_OUTPUT               1005cda0 f   LIBCMT:x10fout.obj
 0001:0005c794       __control87                1005d794 f i LIBCMT:ieee87.obj
 0001:0005caa0       ___ascii_strnicmp          1005daa0 f   LIBCMT:_strnicm.obj
 0001:0005cb01       ___initconout              1005db01 f   LIBCMT:initcon.obj
 0001:0005cb20       ___termcon                 1005db20 f   LIBCMT:initcon.obj
 0001:0005cb4d       __fclose_nolock            1005db4d f   LIBCMT:fclose.obj
 0001:0005cbbf       _fclose                    1005dbbf f   LIBCMT:fclose.obj
 0001:0005cc3b       __commit                   1005dc3b f   LIBCMT:commit.obj
 0001:0005cd1c       ___mtold12                 1005dd1c f   LIBCMT:mantold.obj
 0001:0005cee8       ___set_fpsr_sse2           1005dee8 f   LIBCMT:fpctrl.obj
 0001:0005cf5a       __close_nolock             1005df5a f   LIBCMT:close.obj
 0001:0005cfee       __close                    1005dfee f   LIBCMT:close.obj
 0001:0005d0bb       __freebuf                  1005e0bb f   LIBCMT:_freebuf.obj
 0001:0005d0e8       _RtlUnwind@16              1005e0e8 f   kernel32:KERNEL32.dll
 0002:00000000       __imp__SelectPalette@12    10061000     gdi32:GDI32.dll
 0002:00000004       __imp__DeleteObject@4      10061004     gdi32:GDI32.dll
 0002:00000008       __imp__DeleteDC@4          10061008     gdi32:GDI32.dll
 0002:0000000c       __imp__SelectObject@8      1006100c     gdi32:GDI32.dll
 0002:00000010       __imp__SetTextAlign@8      10061010     gdi32:GDI32.dll
 0002:00000014       __imp__CreateCompatibleDC@4 10061014     gdi32:GDI32.dll
 0002:00000018       __imp__CreateCompatibleBitmap@12 10061018     gdi32:GDI32.dll
 0002:0000001c       __imp__CreateBitmap@20     1006101c     gdi32:GDI32.dll
 0002:00000020       __imp__CreateRectRgn@16    10061020     gdi32:GDI32.dll
 0002:00000024       __imp__CombineRgn@16       10061024     gdi32:GDI32.dll
 0002:00000028       __imp__TranslateCharsetInfo@12 10061028     gdi32:GDI32.dll
 0002:0000002c       __imp__SetBkMode@8         1006102c     gdi32:GDI32.dll
 0002:00000030       __imp__ExtTextOutW@32      10061030     gdi32:GDI32.dll
 0002:00000034       __imp__SetTextColor@8      10061034     gdi32:GDI32.dll
 0002:00000038       __imp__GetTextExtentExPointW@28 10061038     gdi32:GDI32.dll
 0002:0000003c       __imp__GetTextExtentExPointA@28 1006103c     gdi32:GDI32.dll
 0002:00000040       __imp__GetTextExtentPoint32W@16 10061040     gdi32:GDI32.dll
 0002:00000044       __imp__CreateDIBSection@24 10061044     gdi32:GDI32.dll
 0002:00000048       __imp__GetStockObject@4    10061048     gdi32:GDI32.dll
 0002:0000004c       __imp__GetObjectA@12       1006104c     gdi32:GDI32.dll
 0002:00000050       __imp__CreateFontIndirectA@4 10061050     gdi32:GDI32.dll
 0002:00000054       __imp__IntersectClipRect@20 10061054     gdi32:GDI32.dll
 0002:00000058       __imp__RealizePalette@4    10061058     gdi32:GDI32.dll
 0002:0000005c       __imp__GetTextMetricsA@8   1006105c     gdi32:GDI32.dll
 0002:00000060       __imp__GetTextExtentPoint32A@16 10061060     gdi32:GDI32.dll
 0002:00000064       __imp__BitBlt@36           10061064     gdi32:GDI32.dll
 0002:00000068       __imp__Ellipse@20          10061068     gdi32:GDI32.dll
 0002:0000006c       __imp__RoundRect@28        1006106c     gdi32:GDI32.dll
 0002:00000070       __imp__CreatePatternBrush@4 10061070     gdi32:GDI32.dll
 0002:00000074       __imp__SetBkColor@8        10061074     gdi32:GDI32.dll
 0002:00000078       __imp__ExtTextOutA@32      10061078     gdi32:GDI32.dll
 0002:0000007c       __imp__Rectangle@20        1006107c     gdi32:GDI32.dll
 0002:00000080       __imp__Polygon@12          10061080     gdi32:GDI32.dll
 0002:00000084       __imp__LineTo@12           10061084     gdi32:GDI32.dll
 0002:00000088       __imp__MoveToEx@16         10061088     gdi32:GDI32.dll
 0002:0000008c       __imp__GetDeviceCaps@8     1006108c     gdi32:GDI32.dll
 0002:00000090       __imp__GetNearestColor@8   10061090     gdi32:GDI32.dll
 0002:00000094       __imp__CreateSolidBrush@4  10061094     gdi32:GDI32.dll
 0002:00000098       __imp__CreatePen@12        10061098     gdi32:GDI32.dll
 0002:0000009c       __imp__CreatePalette@4     1006109c     gdi32:GDI32.dll
 0002:000000a0       \177GDI32_NULL_THUNK_DATA  100610a0     gdi32:GDI32.dll
 0002:000000a4       __imp__ImmSetCompositionFontA@8 100610a4     imm32:IMM32.dll
 0002:000000a8       __imp__ImmGetContext@4     100610a8     imm32:IMM32.dll
 0002:000000ac       __imp__ImmReleaseContext@8 100610ac     imm32:IMM32.dll
 0002:000000b0       __imp__ImmGetCompositionStringW@16 100610b0     imm32:IMM32.dll
 0002:000000b4       __imp__ImmSetCompositionWindow@8 100610b4     imm32:IMM32.dll
 0002:000000b8       __imp__ImmNotifyIME@16     100610b8     imm32:IMM32.dll
 0002:000000bc       \177IMM32_NULL_THUNK_DATA  100610bc     imm32:IMM32.dll
 0002:000000c0       __imp__FreeLibrary@4       100610c0     kernel32:KERNEL32.dll
 0002:000000c4       __imp__FlushFileBuffers@4  100610c4     kernel32:KERNEL32.dll
 0002:000000c8       __imp__CloseHandle@4       100610c8     kernel32:KERNEL32.dll
 0002:000000cc       __imp__CreateFileA@28      100610cc     kernel32:KERNEL32.dll
 0002:000000d0       __imp__WriteConsoleW@20    100610d0     kernel32:KERNEL32.dll
 0002:000000d4       __imp__GetConsoleOutputCP@0 100610d4     kernel32:KERNEL32.dll
 0002:000000d8       __imp__WriteConsoleA@20    100610d8     kernel32:KERNEL32.dll
 0002:000000dc       __imp__SetStdHandle@8      100610dc     kernel32:KERNEL32.dll
 0002:000000e0       __imp__GetConsoleMode@8    100610e0     kernel32:KERNEL32.dll
 0002:000000e4       __imp__GetConsoleCP@0      100610e4     kernel32:KERNEL32.dll
 0002:000000e8       __imp__SetFilePointer@16   100610e8     kernel32:KERNEL32.dll
 0002:000000ec       __imp__GetStringTypeW@16   100610ec     kernel32:KERNEL32.dll
 0002:000000f0       __imp__GetStringTypeA@20   100610f0     kernel32:KERNEL32.dll
 0002:000000f4       __imp__HeapReAlloc@16      100610f4     kernel32:KERNEL32.dll
 0002:000000f8       __imp__VirtualAlloc@16     100610f8     kernel32:KERNEL32.dll
 0002:000000fc       __imp__GetCurrentProcessId@0 100610fc     kernel32:KERNEL32.dll
 0002:00000100       __imp__VirtualFree@12      10061100     kernel32:KERNEL32.dll
 0002:00000104       __imp__HeapCreate@12       10061104     kernel32:KERNEL32.dll
 0002:00000108       __imp__HeapDestroy@4       10061108     kernel32:KERNEL32.dll
 0002:0000010c       __imp__GetEnvironmentStringsW@0 1006110c     kernel32:KERNEL32.dll
 0002:00000110       __imp__FreeEnvironmentStringsW@4 10061110     kernel32:KERNEL32.dll
 0002:00000114       __imp__GetEnvironmentStrings@0 10061114     kernel32:KERNEL32.dll
 0002:00000118       __imp__FreeEnvironmentStringsA@4 10061118     kernel32:KERNEL32.dll
 0002:0000011c       __imp__GetStartupInfoA@4   1006111c     kernel32:KERNEL32.dll
 0002:00000120       __imp__GetFileType@4       10061120     kernel32:KERNEL32.dll
 0002:00000124       __imp__SetHandleCount@4    10061124     kernel32:KERNEL32.dll
 0002:00000128       __imp__ExitProcess@4       10061128     kernel32:KERNEL32.dll
 0002:0000012c       __imp__HeapSize@12         1006112c     kernel32:KERNEL32.dll
 0002:00000130       __imp__Sleep@4             10061130     kernel32:KERNEL32.dll
 0002:00000134       __imp__LCMapStringW@24     10061134     kernel32:KERNEL32.dll
 0002:00000138       __imp__LCMapStringA@24     10061138     kernel32:KERNEL32.dll
 0002:0000013c       __imp__GetModuleFileNameA@12 1006113c     kernel32:KERNEL32.dll
 0002:00000140       __imp__GetStdHandle@4      10061140     kernel32:KERNEL32.dll
 0002:00000144       __imp__WriteFile@20        10061144     kernel32:KERNEL32.dll
 0002:00000148       __imp__GetOEMCP@0          10061148     kernel32:KERNEL32.dll
 0002:0000014c       __imp__RaiseException@16   1006114c     kernel32:KERNEL32.dll
 0002:00000150       __imp__InterlockedDecrement@4 10061150     kernel32:KERNEL32.dll
 0002:00000154       __imp__SetLastError@4      10061154     kernel32:KERNEL32.dll
 0002:00000158       __imp__InterlockedIncrement@4 10061158     kernel32:KERNEL32.dll
 0002:0000015c       __imp__TlsFree@4           1006115c     kernel32:KERNEL32.dll
 0002:00000160       __imp__TlsSetValue@8       10061160     kernel32:KERNEL32.dll
 0002:00000164       __imp__TlsAlloc@0          10061164     kernel32:KERNEL32.dll
 0002:00000168       __imp__TlsGetValue@4       10061168     kernel32:KERNEL32.dll
 0002:0000016c       __imp__GetLastError@0      1006116c     kernel32:KERNEL32.dll
 0002:00000170       __imp__IsDebuggerPresent@0 10061170     kernel32:KERNEL32.dll
 0002:00000174       __imp__GetCurrentProcess@0 10061174     kernel32:KERNEL32.dll
 0002:00000178       __imp__TerminateProcess@8  10061178     kernel32:KERNEL32.dll
 0002:0000017c       __imp__GetProcessHeap@0    1006117c     kernel32:KERNEL32.dll
 0002:00000180       __imp__HeapAlloc@12        10061180     kernel32:KERNEL32.dll
 0002:00000184       __imp__HeapFree@12         10061184     kernel32:KERNEL32.dll
 0002:00000188       __imp__GetCommandLineA@0   10061188     kernel32:KERNEL32.dll
 0002:0000018c       __imp__GetCurrentThreadId@0 1006118c     kernel32:KERNEL32.dll
 0002:00000190       __imp__SetUnhandledExceptionFilter@4 10061190     kernel32:KERNEL32.dll
 0002:00000194       __imp__UnhandledExceptionFilter@4 10061194     kernel32:KERNEL32.dll
 0002:00000198       __imp__GetSystemTimeAsFileTime@4 10061198     kernel32:KERNEL32.dll
 0002:0000019c       __imp__RtlUnwind@16        1006119c     kernel32:KERNEL32.dll
 0002:000001a0       __imp__LeaveCriticalSection@4 100611a0     kernel32:KERNEL32.dll
 0002:000001a4       __imp__EnterCriticalSection@4 100611a4     kernel32:KERNEL32.dll
 0002:000001a8       __imp__MulDiv@12           100611a8     kernel32:KERNEL32.dll
 0002:000001ac       __imp__GetACP@0            100611ac     kernel32:KERNEL32.dll
 0002:000001b0       __imp__GetModuleHandleA@4  100611b0     kernel32:KERNEL32.dll
 0002:000001b4       __imp__QueryPerformanceCounter@4 100611b4     kernel32:KERNEL32.dll
 0002:000001b8       __imp__GetTickCount@0      100611b8     kernel32:KERNEL32.dll
 0002:000001bc       __imp__GlobalFree@4        100611bc     kernel32:KERNEL32.dll
 0002:000001c0       __imp__GlobalSize@4        100611c0     kernel32:KERNEL32.dll
 0002:000001c4       __imp__GlobalUnlock@4      100611c4     kernel32:KERNEL32.dll
 0002:000001c8       __imp__GlobalAlloc@8       100611c8     kernel32:KERNEL32.dll
 0002:000001cc       __imp__GlobalLock@4        100611cc     kernel32:KERNEL32.dll
 0002:000001d0       __imp__IsValidCodePage@4   100611d0     kernel32:KERNEL32.dll
 0002:000001d4       __imp__GetCPInfo@8         100611d4     kernel32:KERNEL32.dll
 0002:000001d8       __imp__WideCharToMultiByte@32 100611d8     kernel32:KERNEL32.dll
 0002:000001dc       __imp__GetLocaleInfoA@16   100611dc     kernel32:KERNEL32.dll
 0002:000001e0       __imp__GetVersionExA@4     100611e0     kernel32:KERNEL32.dll
 0002:000001e4       __imp__InitializeCriticalSection@4 100611e4     kernel32:KERNEL32.dll
 0002:000001e8       __imp__GetProcAddress@8    100611e8     kernel32:KERNEL32.dll
 0002:000001ec       __imp__LoadLibraryA@4      100611ec     kernel32:KERNEL32.dll
 0002:000001f0       __imp__MultiByteToWideChar@24 100611f0     kernel32:KERNEL32.dll
 0002:000001f4       __imp__DeleteCriticalSection@4 100611f4     kernel32:KERNEL32.dll
 0002:000001f8       __imp__IsDBCSLeadByteEx@8  100611f8     kernel32:KERNEL32.dll
 0002:000001fc       \177KERNEL32_NULL_THUNK_DATA 100611fc     kernel32:KERNEL32.dll
 0002:00000200       __imp__GetWindowLongA@8    10061200     user32:USER32.dll
 0002:00000204       __imp__SetWindowLongA@12   10061204     user32:USER32.dll
 0002:00000208       __imp__FillRect@12         10061208     user32:USER32.dll
 0002:0000020c       __imp__DestroyWindow@4     1006120c     user32:USER32.dll
 0002:00000210       __imp__GetWindowRect@8     10061210     user32:USER32.dll
 0002:00000214       __imp__MapWindowPoints@16  10061214     user32:USER32.dll
 0002:00000218       __imp__CreateWindowExA@48  10061218     user32:USER32.dll
 0002:0000021c       __imp__AdjustWindowRectEx@16 1006121c     user32:USER32.dll
 0002:00000220       __imp__SetCapture@4        10061220     user32:USER32.dll
 0002:00000224       __imp__GetCursorPos@4      10061224     user32:USER32.dll
 0002:00000228       __imp__SetWindowPos@28     10061228     user32:USER32.dll
 0002:0000022c       __imp__GetSystemMetrics@4  1006122c     user32:USER32.dll
 0002:00000230       __imp__GetClientRect@8     10061230     user32:USER32.dll
 0002:00000234       __imp__ShowWindow@8        10061234     user32:USER32.dll
 0002:00000238       __imp__InvalidateRect@12   10061238     user32:USER32.dll
 0002:0000023c       __imp__SendMessageA@16     1006123c     user32:USER32.dll
 0002:00000240       __imp__SetCursor@4         10061240     user32:USER32.dll
 0002:00000244       __imp__RegisterClassExW@4  10061244     user32:USER32.dll
 0002:00000248       __imp__IsChild@8           10061248     user32:USER32.dll
 0002:0000024c       __imp__ClientToScreen@8    1006124c     user32:USER32.dll
 0002:00000250       __imp__IsWindowUnicode@4   10061250     user32:USER32.dll
 0002:00000254       __imp__GetMessageTime@0    10061254     user32:USER32.dll
 0002:00000258       __imp__SetFocus@4          10061258     user32:USER32.dll
 0002:0000025c       __imp__MsgWaitForMultipleObjects@20 1006125c     user32:USER32.dll
 0002:00000260       __imp__PostMessageA@16     10061260     user32:USER32.dll
 0002:00000264       __imp__GetUpdateRgn@12     10061264     user32:USER32.dll
 0002:00000268       __imp__SetCaretPos@8       10061268     user32:USER32.dll
 0002:0000026c       __imp__RegisterClipboardFormatA@4 1006126c     user32:USER32.dll
 0002:00000270       __imp__HideCaret@4         10061270     user32:USER32.dll
 0002:00000274       __imp__DestroyCaret@0      10061274     user32:USER32.dll
 0002:00000278       __imp__CreateCaret@16      10061278     user32:USER32.dll
 0002:0000027c       __imp__ShowCaret@4         1006127c     user32:USER32.dll
 0002:00000280       __imp__ScreenToClient@8    10061280     user32:USER32.dll
 0002:00000284       __imp__EmptyClipboard@0    10061284     user32:USER32.dll
 0002:00000288       __imp__SystemParametersInfoA@16 10061288     user32:USER32.dll
 0002:0000028c       __imp__AppendMenuA@16      1006128c     user32:USER32.dll
 0002:00000290       __imp__OpenClipboard@4     10061290     user32:USER32.dll
 0002:00000294       __imp__GetClipboardData@4  10061294     user32:USER32.dll
 0002:00000298       __imp__CloseClipboard@0    10061298     user32:USER32.dll
 0002:0000029c       __imp__SetClipboardData@8  1006129c     user32:USER32.dll
 0002:000002a0       __imp__IsClipboardFormatAvailable@4 100612a0     user32:USER32.dll
 0002:000002a4       __imp__GetDlgCtrlID@4      100612a4     user32:USER32.dll
 0002:000002a8       __imp__GetScrollInfo@12    100612a8     user32:USER32.dll
 0002:000002ac       __imp__SetScrollInfo@16    100612ac     user32:USER32.dll
 0002:000002b0       __imp__ScrollWindow@20     100612b0     user32:USER32.dll
 0002:000002b4       __imp__UpdateWindow@4      100612b4     user32:USER32.dll
 0002:000002b8       __imp__SetTimer@16         100612b8     user32:USER32.dll
 0002:000002bc       __imp__KillTimer@8         100612bc     user32:USER32.dll
 0002:000002c0       __imp__GetKeyboardLayout@4 100612c0     user32:USER32.dll
 0002:000002c4       __imp__CreatePopupMenu@0   100612c4     user32:USER32.dll
 0002:000002c8       __imp__RegisterClassExA@4  100612c8     user32:USER32.dll
 0002:000002cc       __imp__ReleaseCapture@0    100612cc     user32:USER32.dll
 0002:000002d0       __imp__InflateRect@12      100612d0     user32:USER32.dll
 0002:000002d4       __imp__DrawTextW@20        100612d4     user32:USER32.dll
 0002:000002d8       __imp__DrawTextA@20        100612d8     user32:USER32.dll
 0002:000002dc       __imp__DrawFocusRect@8     100612dc     user32:USER32.dll
 0002:000002e0       __imp__GetDC@4             100612e0     user32:USER32.dll
 0002:000002e4       __imp__ReleaseDC@8         100612e4     user32:USER32.dll
 0002:000002e8       __imp__FrameRect@12        100612e8     user32:USER32.dll
 0002:000002ec       __imp__GetKeyState@4       100612ec     user32:USER32.dll
 0002:000002f0       __imp__GetDoubleClickTime@0 100612f0     user32:USER32.dll
 0002:000002f4       __imp__GetSysColor@4       100612f4     user32:USER32.dll
 0002:000002f8       __imp__TrackPopupMenu@28   100612f8     user32:USER32.dll
 0002:000002fc       __imp__DestroyMenu@4       100612fc     user32:USER32.dll
 0002:00000300       __imp__UnregisterClassA@8  10061300     user32:USER32.dll
 0002:00000304       __imp__CallWindowProcA@20  10061304     user32:USER32.dll
 0002:00000308       __imp__GetParent@4         10061308     user32:USER32.dll
 0002:0000030c       __imp__BeginPaint@8        1006130c     user32:USER32.dll
 0002:00000310       __imp__EndPaint@8          10061310     user32:USER32.dll
 0002:00000314       __imp__DefWindowProcA@16   10061314     user32:USER32.dll
 0002:00000318       __imp__LoadCursorA@8       10061318     user32:USER32.dll
 0002:0000031c       \177USER32_NULL_THUNK_DATA 1006131c     user32:USER32.dll
 0002:00000320       __imp__RevokeDragDrop@4    10061320     ole32:ole32.dll
 0002:00000324       __imp__OleUninitialize@0   10061324     ole32:ole32.dll
 0002:00000328       __imp__DoDragDrop@16       10061328     ole32:ole32.dll
 0002:0000032c       __imp__OleInitialize@4     1006132c     ole32:ole32.dll
 0002:00000330       __imp__RegisterDragDrop@8  10061330     ole32:ole32.dll
 0002:00000334       \177ole32_NULL_THUNK_DATA  10061334     ole32:ole32.dll
 0002:00000338       ___xc_a                    10061338     LIBCMT:crt0init.obj
 0002:000004b8       ___xc_z                    100614b8     LIBCMT:crt0init.obj
 0002:000004bc       ___xi_a                    100614bc     LIBCMT:crt0init.obj
 0002:000004d8       ___xi_z                    100614d8     LIBCMT:crt0init.obj
 0002:000004dc       ___xp_a                    100614dc     LIBCMT:crt0init.obj
 0002:000004e8       ___xp_z                    100614e8     LIBCMT:crt0init.obj
 0002:000004ec       ___xt_a                    100614ec     LIBCMT:crt0init.obj
 0002:000004f0       ___xt_z                    100614f0     LIBCMT:crt0init.obj
 0002:000004fc       ??_7Window@@6B@            100614fc     CallTip.obj
 0002:00000504       ??_C@_0CC@DCACOJ@Bad?5GetCharRange?5?$CFd?5for?5?$CFd?5of?5?$CFd@ 10061504     CellBuffer.obj
 0002:0000052c       ??_7ContractionState@@6B@  1006152c     ContractionState.obj
 0002:00000534       ??_7PerLine@@6B@           10061534     Document.obj
 0002:00000548       ??_7RegexSearchBase@@6B@   10061548     Document.obj
 0002:00000558       ??_7CharacterIndexer@@6B@  10061558     Document.obj
 0002:00000564       ??_7Document@@6B@          10061564     Document.obj
 0002:00000574       ??_C@_01LIIJDEN@?$AN?$AA@  10061574     Document.obj
 0002:00000578       ??_C@_01EEMJAFIK@?6?$AA@   10061578     Document.obj
 0002:00000580       ??_7BuiltinRegex@@6B@      10061580     Document.obj
 0002:00000590       ??_7DocumentIndexer@@6B@   10061590     Document.obj
 0002:0000059c       ??_7LineMarkers@@6B@       1006159c     Document.obj
 0002:000005b0       ??_7LineState@@6B@         100615b0     Document.obj
 0002:000005c4       ??_7LineAnnotation@@6B@    100615c4     Document.obj
 0002:000005d8       ??_7LineLevels@@6B@        100615d8     Document.obj
 0002:000005ec       ??_7Accessor@@6B@          100615ec     DocumentAccessor.obj
 0002:00000648       ??_7DocWatcher@@6B@        10061648     Editor.obj
 0002:00000660       ??_C@_03KOLNNKD@BAD?$AA@   10061660     Editor.obj
 0002:00000664       ??_C@_02PLFPMECB@US?$AA@   10061664     Editor.obj
 0002:00000668       ??_C@_02POBANCKE@RS?$AA@   10061668     Editor.obj
 0002:0000066c       ??_C@_02OEPNLDDP@GS?$AA@   1006166c     Editor.obj
 0002:00000670       ??_C@_02OFDPNJAI@FS?$AA@   10061670     Editor.obj
 0002:00000674       ??_C@_03MHNPAEMD@ESC?$AA@  10061674     Editor.obj
 0002:00000678       ??_C@_03KPDLEBHD@SUB?$AA@  10061678     Editor.obj
 0002:0000067c       ??_C@_02DDDIFIIO@EM?$AA@   1006167c     Editor.obj
 0002:00000680       ??_C@_03EILIFCEM@CAN?$AA@  10061680     Editor.obj
 0002:00000684       ??_C@_03NLILCDAH@ETB?$AA@  10061684     Editor.obj
 0002:00000688       ??_C@_03KJEPHBL@SYN?$AA@   10061688     Editor.obj
 0002:0000068c       ??_C@_03MHKFHONE@NAK?$AA@  1006168c     Editor.obj
 0002:00000690       ??_C@_03DDLCPOH@DC4?$AA@   10061690     Editor.obj
 0002:00000694       ??_C@_03EMHKLJCA@DC3?$AA@  10061694     Editor.obj
 0002:00000698       ??_C@_03FFGBIIGB@DC2?$AA@  10061698     Editor.obj
 0002:0000069c       ??_C@_03HOEMNLKC@DC1?$AA@  1006169c     Editor.obj
 0002:000006a0       ??_C@_03DOEDCAGN@DLE?$AA@  100616a0     Editor.obj
 0002:000006a4       ??_C@_02EPPPECEI@SI?$AA@   100616a4     Editor.obj
 0002:000006a8       ??_C@_02BJKFOFMO@SO?$AA@   100616a8     Editor.obj
 0002:000006ac       ??_C@_02PKOPCKKC@CR?$AA@   100616ac     Editor.obj
 0002:000006b0       ??_C@_02NCIKDPBM@FF?$AA@   100616b0     Editor.obj
 0002:000006b4       ??_C@_02LGFIOMLP@VT?$AA@   100616b4     Editor.obj
 0002:000006b8       ??_C@_02NPBNLKMK@LF?$AA@   100616b8     Editor.obj
 0002:000006bc       ??_C@_02KAOAGCMF@HT?$AA@   100616bc     Editor.obj
 0002:000006c0       ??_C@_02OCDGHBNE@BS?$AA@   100616c0     Editor.obj
 0002:000006c4       ??_C@_03MFDLPPHH@BEL?$AA@  100616c4     Editor.obj
 0002:000006c8       ??_C@_03JMECLKOM@ACK?$AA@  100616c8     Editor.obj
 0002:000006cc       ??_C@_03KLNFEEDD@ENQ?$AA@  100616cc     Editor.obj
 0002:000006d0       ??_C@_03NHGANKEB@EOT?$AA@  100616d0     Editor.obj
 0002:000006d4       ??_C@_03GLKGNJNM@ETX?$AA@  100616d4     Editor.obj
 0002:000006d8       ??_C@_03BONENBJP@STX?$AA@  100616d8     Editor.obj
 0002:000006dc       ??_C@_03EEGFIPFP@SOH?$AA@  100616dc     Editor.obj
 0002:000006e0       ??_C@_03JDMLODLP@NUL?$AA@  100616e0     Editor.obj
 0002:000006e4       ??_C@_02PCIJFNDE@?$AN?6?$AA@ 100616e4     Editor.obj
 0002:000006e8       ??_C@_0P@CCAHDFEI@?$CFc?$CFc?5?$CF03X?5?$CF03X?$AA@ 100616e8     Editor.obj
 0002:000006f8       ??_C@_02DPKJAMEF@?$CFd?$AA@ 100616f8     Editor.obj
 0002:000006fc       ??_C@_03BMNKJJEN@?$CF2X?$AA@ 100616fc     Editor.obj
 0002:00000700       ??_C@_05HIBFNGCI@?$CFd?5?5?5?$AA@ 10061700     Editor.obj
 0002:00000708       ??_C@_08LOKCHEOB@99999?5?5?5?$AA@ 10061708     Editor.obj
 0002:00000714       ??_C@_03NDEAONJP@?5?5?5?$AA@ 10061714     Editor.obj
 0002:0000071c       ??_7Editor@@6B@            1006171c     Editor.obj
 0002:000007cc       ??_C@_00CNPNBAHC@?$AA@     100617cc     Editor.obj
 0002:000007d4       ??_7LexerModule@@6B@       100617d4     ExternalLexer.obj
 0002:000007e4       ??_7ExternalLexerModule@@6B@ 100617e4     ExternalLexer.obj
 0002:000007f4       ??_C@_01CLKCMJKC@?5?$AA@   100617f4     ExternalLexer.obj
 0002:000007f8       ??_C@_04MNHHNOLJ@Fold?$AA@ 100617f8     ExternalLexer.obj
 0002:00000800       ??_C@_03KGIDDNFD@Lex?$AA@  10061800     ExternalLexer.obj
 0002:00000804       ??_C@_0N@IAAAMDFA@GetLexerName?$AA@ 10061804     ExternalLexer.obj
 0002:00000814       ??_C@_0O@LKOONAOL@GetLexerCount?$AA@ 10061814     ExternalLexer.obj
 0002:00000828       ?MapDefault@KeyMap@@0QBVKeyToCommand@@B 10061828     KeyMap.obj
 0002:00000bd0       ??_C@_09CEAIPAHE@functions?$AA@ 10061bd0     LexAbaqus.obj
 0002:00000bdc       ??_C@_09PBNAMLIK@arguments?$AA@ 10061bdc     LexAbaqus.obj
 0002:00000be8       ??_C@_0N@LFFGKGDC@starcommands?$AA@ 10061be8     LexAbaqus.obj
 0002:00000bf8       ??_C@_0N@NCNFMIND@slashommands?$AA@ 10061bf8     LexAbaqus.obj
 0002:00000c08       ??_C@_08BPLPECIC@commands?$AA@ 10061c08     LexAbaqus.obj
 0002:00000c14       ??_C@_0L@JPDAFHAE@processors?$AA@ 10061c14     LexAbaqus.obj
 0002:00000c3c       ??_C@_0N@LADGLNMG@?$CKendassembly?$AA@ 10061c3c     LexAbaqus.obj
 0002:00000c4c       ??_C@_0N@EGNHKCMD@?$CKendinstance?$AA@ 10061c4c     LexAbaqus.obj
 0002:00000c5c       ??_C@_08LIKAEHCC@?$CKendpart?$AA@ 10061c5c     LexAbaqus.obj
 0002:00000c68       ??_C@_08OFMCOKKO@?$CKendstep?$AA@ 10061c68     LexAbaqus.obj
 0002:00000c74       ??_C@_09OHMJCPNE@?$CKassembly?$AA@ 10061c74     LexAbaqus.obj
 0002:00000c80       ??_C@_09BBCIDANB@?$CKinstance?$AA@ 10061c80     LexAbaqus.obj
 0002:00000c8c       ??_C@_05IOGEAIGJ@?$CKpart?$AA@ 10061c8c     LexAbaqus.obj
 0002:00000c94       ??_C@_05NDAGKFOF@?$CKstep?$AA@ 10061c94     LexAbaqus.obj
 0002:00000c9c       ??_C@_06CLJHNAAL@abaqus?$AA@ 10061c9c     LexAbaqus.obj
 0002:00000ca4       ??_C@_08CDHFLBJH@Keywords?$AA@ 10061ca4     LexAda.obj
 0002:00000cb8       ??_C@_01IPJKGB@?$CD?$AA@   10061cb8     LexAda.obj
 0002:00000cbc       ??_C@_03NFKEKGGK@all?$AA@  10061cbc     LexAda.obj
 0002:00000cc0       ??_C@_03GOBJIJJP@ada?$AA@  10061cc0     LexAda.obj
 0002:00000ce0       ??_C@_06GOJKGFFG@?$CKenddo?$AA@ 10061ce0     LexAPDL.obj
 0002:00000ce8       ??_C@_06LHIAENEM@?$CKendif?$AA@ 10061ce8     LexAPDL.obj
 0002:00000cf0       ??_C@_08IHHKGFPL@?$CKdowhile?$AA@ 10061cf0     LexAPDL.obj
 0002:00000cfc       ??_C@_03LMIPHLCN@?$CKdo?$AA@ 10061cfc     LexAPDL.obj
 0002:00000d00       ??_C@_03GFJFFDDH@?$CKif?$AA@ 10061d00     LexAPDL.obj
 0002:00000d04       ??_C@_0N@CANAIILB@fold?4compact?$AA@ 10061d04     LexAPDL.obj
 0002:00000d14       ??_C@_04HACGLBNE@apdl?$AA@ 10061d14     LexAPDL.obj
 0002:00000d1c       ??_C@_0BG@MGGBMBFD@Extended?5instructions?$AA@ 10061d1c     LexAsm.obj
 0002:00000d34       ??_C@_0BD@GFAJFAGH@Directive?5operands?$AA@ 10061d34     LexAsm.obj
 0002:00000d48       ??_C@_0L@CDNAJOGF@Directives?$AA@ 10061d48     LexAsm.obj
 0002:00000d54       ??_C@_09KNBLANNJ@Registers?$AA@ 10061d54     LexAsm.obj
 0002:00000d60       ??_C@_0BB@FBCBLHF@FPU?5instructions?$AA@ 10061d60     LexAsm.obj
 0002:00000d74       ??_C@_0BB@PBLMPHPJ@CPU?5instructions?$AA@ 10061d74     LexAsm.obj
 0002:00000da4       ??_C@_03NLMFHDGG@asm?$AA@  10061da4     LexAsm.obj
 0002:00000da8       ??_C@_05MNBBFGB@Types?$AA@ 10061da8     LexAsn1.obj
 0002:00000db0       ??_C@_0M@CJFFKJNE@Descriptors?$AA@ 10061db0     LexAsn1.obj
 0002:00000dbc       ??_C@_0L@PLFFHFAH@Attributes?$AA@ 10061dbc     LexAsn1.obj
 0002:00000ddc       ??_C@_04MLGPBLN@fold?$AA@  10061ddc     LexAsn1.obj
 0002:00000de4       ??_C@_04GABBLIPF@asn1?$AA@ 10061de4     LexAsn1.obj
 0002:00000dec       ??_C@_0CD@KGCMHODP@Secondary?5keywords?5and?5identifie@ 10061dec     LexASY.obj
 0002:00000e10       ??_C@_0CB@CGKBKPBP@Primary?5keywords?5and?5identifiers@ 10061e10     LexASY.obj
 0002:00000e40       ??_C@_05IDCCNNGI@label?$AA@ 10061e40     LexASY.obj
 0002:00000e48       ??_C@_04BJJKJDJA@pair?$AA@ 10061e48     LexASY.obj
 0002:00000e50       ??_C@_04LNDCPPFO@draw?$AA@ 10061e50     LexASY.obj
 0002:00000e58       ??_C@_0N@JLHFHPHF@fold?4at?4else?$AA@ 10061e58     LexASY.obj
 0002:00000e68       ??_C@_0N@DPBKNPIG@fold?4comment?$AA@ 10061e68     LexASY.obj
 0002:00000e78       ??_C@_0L@FPFMPDDA@0123456789?$AA@ 10061e78     LexASY.obj
 0002:00000e84       ??_C@_0BL@PIDGKGOO@ABCDEFGHIJKLMNOPQRSTUVWXYZ?$AA@ 10061e84     LexASY.obj
 0002:00000ea0       ??_C@_0BL@JIGBPIBD@abcdefghijklmnopqrstuvwxyz?$AA@ 10061ea0     LexASY.obj
 0002:00000ebc       ??_C@_02PEOAMJM@?4_?$AA@   10061ebc     LexASY.obj
 0002:00000ec0       ??_C@_01IDAFKMJL@_?$AA@    10061ec0     LexASY.obj
 0002:00000ec4       ??_C@_03PFGLKEDD@asy?$AA@  10061ec4     LexASY.obj
 0002:00000ec8       ??_C@_0M@KMAEEMJI@?$CDautoit?5UDF?$AA@ 10061ec8     LexAU3.obj
 0002:00000ed4       ??_C@_0P@FCOEODCF@?$CDautoit?5Expand?$AA@ 10061ed4     LexAU3.obj
 0002:00000ee4       ??_C@_0BA@LJOCFINO@?$CDautoit?5Special?$AA@ 10061ee4     LexAU3.obj
 0002:00000ef4       ??_C@_0BH@KEKNABED@?$CDautoit?5Pre?9processors?$AA@ 10061ef4     LexAU3.obj
 0002:00000f0c       ??_C@_0BC@CDJCEEPI@?$CDautoit?5Sent?5keys?$AA@ 10061f0c     LexAU3.obj
 0002:00000f20       ??_C@_0P@OLMCDMAP@?$CDautoit?5macros?$AA@ 10061f20     LexAU3.obj
 0002:00000f30       ??_C@_0BC@DIPKKBKF@?$CDautoit?5functions?$AA@ 10061f30     LexAU3.obj
 0002:00000f44       ??_C@_0BB@DPLEIAGF@?$CDautoit?5keywords?$AA@ 10061f44     LexAU3.obj
 0002:00000f7c       ??_C@_06FHLCKAHH@toggle?$AA@ 10061f7c     LexAU3.obj
 0002:00000f84       ??_C@_03MCADLMAF@off?$AA@  10061f84     LexAU3.obj
 0002:00000f88       ??_C@_02LIELOMNJ@on?$AA@   10061f88     LexAU3.obj
 0002:00000f8c       ??_C@_02HNLLPFKA@up?$AA@   10061f8c     LexAU3.obj
 0002:00000f90       ??_C@_04JMOKAGMG@down?$AA@ 10061f90     LexAU3.obj
 0002:00000f98       ??_C@_0O@PJJCJDBF@?$CDcomments?9end?$AA@ 10061f98     LexAU3.obj
 0002:00000fa8       ??_C@_03DOCHMKKI@?$CDce?$AA@ 10061fa8     LexAU3.obj
 0002:00000fac       ??_C@_01GBGANLPD@0?$AA@    10061fac     LexAU3.obj
 0002:00000fb0       ??_C@_0BA@IKJEEDCD@?$CDcomments?9start?$AA@ 10061fb0     LexAU3.obj
 0002:00000fc0       ??_C@_03CCLPHPHP@?$CDcs?$AA@ 10061fc0     LexAU3.obj
 0002:00000fc4       ??_C@_08GPLAJCBH@?$CDinclude?$AA@ 10061fc4     LexAU3.obj
 0002:00000fd0       ??_C@_09FHPAIDDJ@?$CDcomments?$AA@ 10061fd0     LexAU3.obj
 0002:00000fdc       ??_C@_0L@IKMPBKIN@?$CDendregion?$AA@ 10061fdc     LexAU3.obj
 0002:00000fe8       ??_C@_09LHNGONCE@endswitch?$AA@ 10061fe8     LexAU3.obj
 0002:00000ff4       ??_C@_09DPPKKMGD@endselect?$AA@ 10061ff4     LexAU3.obj
 0002:00001000       ??_C@_06CAACNEC@elseif?$AA@ 10062000     LexAU3.obj
 0002:00001008       ??_C@_04FHMCPBIP@else?$AA@ 10062008     LexAU3.obj
 0002:00001010       ??_C@_04CKOINMPC@case?$AA@ 10062010     LexAU3.obj
 0002:00001018       ??_C@_04DNAPHLIF@wend?$AA@ 10062018     LexAU3.obj
 0002:00001020       ??_C@_07LJDKFBMI@endwith?$AA@ 10062020     LexAU3.obj
 0002:00001028       ??_C@_05FJMDOIMN@until?$AA@ 10062028     LexAU3.obj
 0002:00001030       ??_C@_04CJGEDOF@next?$AA@  10062030     LexAU3.obj
 0002:00001038       ??_C@_05PAODFFED@endif?$AA@ 10062038     LexAU3.obj
 0002:00001040       ??_C@_07MDAPILA@endfunc?$AA@ 10062040     LexAU3.obj
 0002:00001048       ??_C@_06DOPOGBGP@switch?$AA@ 10062048     LexAU3.obj
 0002:00001050       ??_C@_06LGNCCACI@select?$AA@ 10062050     LexAU3.obj
 0002:00001058       ??_C@_07BLCDMDCI@?$CDregion?$AA@ 10062058     LexAU3.obj
 0002:00001060       ??_C@_04MKNNKNJH@with?$AA@ 10062060     LexAU3.obj
 0002:00001068       ??_C@_05OODBEKIG@while?$AA@ 10062068     LexAU3.obj
 0002:00001070       ??_C@_04HPNHAEOP@func?$AA@ 10062070     LexAU3.obj
 0002:00001078       ??_C@_03JOHEBPFF@for?$AA@  10062078     LexAU3.obj
 0002:0000107c       ??_C@_02KNAFDCHJ@do?$AA@   1006207c     LexAU3.obj
 0002:00001080       ??_C@_04HOHPNOOD@then?$AA@ 10062080     LexAU3.obj
 0002:00001088       ??_C@_02HEBPBKGD@if?$AA@   10062088     LexAU3.obj
 0002:0000108c       ??_C@_0BC@JNCGDMPH@fold?4preprocessor?$AA@ 1006208c     LexAU3.obj
 0002:000010a0       ??_C@_03PLHAHPAO@au3?$AA@  100620a0     LexAU3.obj
 0002:000010a4       ??_C@_03JBJLGPFL@end?$AA@  100620a4     LexAVE.obj
 0002:000010a8       ??_C@_03BFNHDLIF@ave?$AA@  100620a8     LexAVE.obj
 0002:000010ac       ??_C@_08OADOHMNA@dllusage?$AA@ 100620ac     LexBaan.obj
 0002:000010b8       ??_C@_0M@BHLNKMDN@enddllusage?$AA@ 100620b8     LexBaan.obj
 0002:000010c4       ??_C@_0BM@BJCEEOFH@styling?4within?4preprocessor?$AA@ 100620c4     LexBaan.obj
 0002:000010e0       ??_C@_04OLNOFLJH@baan?$AA@ 100620e0     LexBaan.obj
 0002:000010f0       ??_C@_02NNOFLBII@?$DN$?$AA@ 100620f0     LexBash.obj
 0002:000010f4       ??_C@_04GJEBJLPJ@_?9?$CL?$CB?$AA@ 100620f4     LexBash.obj
 0002:000010fc       ??_C@_05KENJANLF@_?2?9?$CL?$CB?$AA@ 100620fc     LexBash.obj
 0002:00001104       ??_C@_02CNJIJEK@$_?$AA@    10062104     LexBash.obj
 0002:00001108       ??_C@_0CC@ONHNEENN@rwxoRWXOezsfdlpSbctugkTBMACahGLN@ 10062108     LexBash.obj
 0002:0000112c       ??_C@_0BL@BOOKHKKF@?$FO?$CG?2?$CF?$CI?$CJ?9?$CL?$DN?$HM?$HL?$HN?$FL?$FN?3?$DL?$DO?0?$CK?1?$DM?$DP?$CB?4?$HO?$EA?$AA@ 1006212c     LexBash.obj
 0002:00001148       ??_C@_04MAHAHFJN@?4_?$CL?9?$AA@ 10062148     LexBash.obj
 0002:00001150       ??_C@_04KCCGILAP@bash?$AA@ 10062150     LexBash.obj
 0002:00001158       ??_C@_0CA@HJGLDADL@FreeBasic?5PreProcessor?5Keywords?$AA@ 10062158     LexBasic.obj
 0002:00001178       ??_C@_0BD@IAEOIODM@FreeBasic?5Keywords?$AA@ 10062178     LexBasic.obj
 0002:0000118c       ??_C@_0P@BCMPNDGJ@user?5defined?52?$AA@ 1006218c     LexBasic.obj
 0002:0000119c       ??_C@_0P@DJOCIAKK@user?5defined?51?$AA@ 1006219c     LexBasic.obj
 0002:000011ac       ??_C@_0CA@MAAEEGOA@PureBasic?5PreProcessor?5Keywords?$AA@ 100621ac     LexBasic.obj
 0002:000011cc       ??_C@_0BD@NIDNFBHH@PureBasic?5Keywords?$AA@ 100621cc     LexBasic.obj
 0002:000011e0       ??_C@_05EEGIGAO@user3?$AA@ 100621e0     LexBasic.obj
 0002:000011e8       ??_C@_05BNFNLHEP@user2?$AA@ 100621e8     LexBasic.obj
 0002:000011f0       ??_C@_05DGHAOEIM@user1?$AA@ 100621f0     LexBasic.obj
 0002:000011f8       ??_C@_0BE@NKHKEDMI@BlitzBasic?5Keywords?$AA@ 100621f8     LexBasic.obj
 0002:00001248       ??_C@_08OECIKOFI@end?5type?$AA@ 10062248     LexBasic.obj
 0002:00001254       ??_C@_0N@OBMNJAGI@end?5function?$AA@ 10062254     LexBasic.obj
 0002:00001264       ??_C@_04GPMDFGEJ@type?$AA@ 10062264     LexBasic.obj
 0002:0000126c       ??_C@_08HFFPPCHF@function?$AA@ 1006226c     LexBasic.obj
 0002:00001278       ??_C@_0N@LDABAHDG@endstructure?$AA@ 10062278     LexBasic.obj
 0002:00001288       ??_C@_0N@LOHFHOC@endinterface?$AA@ 10062288     LexBasic.obj
 0002:00001298       ??_C@_0P@NFLGEII@endenumeration?$AA@ 10062298     LexBasic.obj
 0002:000012a8       ??_C@_0N@HOCFDMCO@endprocedure?$AA@ 100622a8     LexBasic.obj
 0002:000012b8       ??_C@_09GNENBKCD@structure?$AA@ 100622b8     LexBasic.obj
 0002:000012c4       ??_C@_09NFKLEKPH@interface?$AA@ 100622c4     LexBasic.obj
 0002:000012d0       ??_C@_0M@FJOIDAAJ@enumeration?$AA@ 100622d0     LexBasic.obj
 0002:000012dc       ??_C@_09KAGJCBDL@procedure?$AA@ 100622dc     LexBasic.obj
 0002:000012e8       ??_C@_07PHIAHHFF@end?5sub?$AA@ 100622e8     LexBasic.obj
 0002:000012f0       ??_C@_03KCMAIMAP@sub?$AA@  100622f0     LexBasic.obj
 0002:000012f4       ??_C@_0L@FGOLJFPB@blitzbasic?$AA@ 100622f4     LexBasic.obj
 0002:00001300       ??_C@_09PGMBFGDB@purebasic?$AA@ 10062300     LexBasic.obj
 0002:0000130c       ??_C@_09MOGOPCGF@freebasic?$AA@ 1006230c     LexBasic.obj
 0002:00001320       ??_C@_04JCJDPOBL@trap?$AA@ 10062320     LexBullant.obj
 0002:00001328       ??_C@_0M@NMFLMFDF@transaction?$AA@ 10062328     LexBullant.obj
 0002:00001334       ??_C@_04MKMCLCOO@lock?$AA@ 10062334     LexBullant.obj
 0002:0000133c       ??_C@_04CEJDCDCH@test?$AA@ 1006233c     LexBullant.obj
 0002:00001344       ??_C@_05GFCDIDHO@debug?$AA@ 10062344     LexBullant.obj
 0002:0000134c       ??_C@_05ENKANFLO@class?$AA@ 1006234c     LexBullant.obj
 0002:00001354       ??_C@_06GABBCIBA@method?$AA@ 10062354     LexBullant.obj
 0002:0000135c       ??_C@_07BPDHOHAP@bullant?$AA@ 1006235c     LexBullant.obj
 0002:00001364       ??_C@_09JKCDBGGG@Keywords3?$AA@ 10062364     LexCaml.obj
 0002:00001370       ??_C@_09IDDICHCH@Keywords2?$AA@ 10062370     LexCaml.obj
 0002:000013f0       ??_C@_0BM@IDKPLHNM@?$CB?$DP?$HO?$DN?$DM?$DO?$EA?$FO?$HM?$CG?$CL?9?$CK?1$?$CF?$CI?$CJ?$FL?$FN?$HL?$HN?$DL?0?3?4?$CD?$AA@ 100623f0     LexCaml.obj
 0002:0000140c       ??_C@_01FJMABOPO@x?$AA@    1006240c     LexCaml.obj
 0002:00001410       ??_C@_06MMLPJAGJ@bBoOxX?$AA@ 10062410     LexCaml.obj
 0002:00001418       ??_C@_05CGEHBIEG@?$CJ?$FN?$HN?$DL?0?$AA@ 10062418     LexCaml.obj
 0002:00001420       ??_C@_0BD@FKGGNCLM@?$CB$?$CF?$CG?$CK?$CL?9?4?1?3?$DM?$DN?$DO?$DP?$EA?$FO?$HM?$HO?$AA@ 10062420     LexCaml.obj
 0002:00001434       ??_C@_08KGDBMPFG@?$CJ?$FN?$HN?$DL?0?8?$CC?$CD?$AA@ 10062434     LexCaml.obj
 0002:00001440       ??_C@_0BB@IEBABMHD@lexer?4caml?4magic?$AA@ 10062440     LexCaml.obj
 0002:00001454       ??_C@_07KPAAENGA@andalso?$AA@ 10062454     LexCaml.obj
 0002:0000145c       ??_C@_04ONJCOJMB@caml?$AA@ 1006245c     LexCaml.obj
 0002:00001464       ??_C@_0CC@FEACKOCB@Reserved?5Words?5?$CIProcedure?5Labels@ 10062464     LexCLW.obj
 0002:00001488       ??_C@_0BI@IDJOCADE@Reserved?5Words?5?$CILabels?$CJ?$AA@ 10062488     LexCLW.obj
 0002:000014a0       ??_C@_0BB@GDMLIOOL@Standard?5Equates?$AA@ 100624a0     LexCLW.obj
 0002:000014b4       ??_C@_0BJ@MIGDHBGO@Structure?5and?5Data?5Types?$AA@ 100624b4     LexCLW.obj
 0002:000014d0       ??_C@_0BE@BMPCCAMO@Runtime?5Expressions?$AA@ 100624d0     LexCLW.obj
 0002:000014e4       ??_C@_0CC@CNOKABNP@Built?9in?5Procedures?5and?5Function@ 100624e4     LexCLW.obj
 0002:00001508       ??_C@_0BE@KMACAAMP@Compiler?5Directives?$AA@ 10062508     LexCLW.obj
 0002:0000151c       ??_C@_0BB@PCLHEAHJ@Clarion?5Keywords?$AA@ 1006251c     LexCLW.obj
 0002:00001558       ??_C@_06BJCILPHA@ABCDEF?$AA@ 10062558     LexCLW.obj
 0002:00001560       ??_C@_0N@JAFEMMAJ@ABCDEFabcdef?$AA@ 10062560     LexCLW.obj
 0002:00001570       ??_C@_03KMMALPKF@BOH?$AA@  10062570     LexCLW.obj
 0002:00001574       ??_C@_06FIAKLNNK@BOHboh?$AA@ 10062574     LexCLW.obj
 0002:0000157c       ??_C@_07NIEFKNMD@DEKNPST?$AA@ 1006257c     LexCLW.obj
 0002:00001584       ??_C@_0P@JEEBPALI@DEKNPSTdeknpst?$AA@ 10062584     LexCLW.obj
 0002:00001594       ??_C@_0BP@NEPKFMMP@BOF?5EOF?5FUNCTION?5POINTER?5SHARE?$AA@ 10062594     LexCLW.obj
 0002:000015b4       ??_C@_0N@BJCOOCEI@COMPILE?5OMIT?$AA@ 100625b4     LexCLW.obj
 0002:000015c4       ??_C@_0BD@OIPONOPD@PROCEDURE?5FUNCTION?$AA@ 100625c4     LexCLW.obj
 0002:000015d8       ??_C@_05CFKHKNMI@WHILE?$AA@ 100625d8     LexCLW.obj
 0002:000015e0       ??_C@_05JCFFAPID@UNTIL?$AA@ 100625e0     LexCLW.obj
 0002:000015e8       ??_C@_03JMGAKCCH@END?$AA@  100625e8     LexCLW.obj
 0002:000015ec       ??_C@_06NBDPIEDA@WINDOW?$AA@ 100625ec     LexCLW.obj
 0002:000015f4       ??_C@_04OLDJKBIG@VIEW?$AA@ 100625f4     LexCLW.obj
 0002:000015fc       ??_C@_07FCDHJNFM@TOOLBAR?$AA@ 100625fc     LexCLW.obj
 0002:00001604       ??_C@_03CJMDHCGG@TAB?$AA@  10062604     LexCLW.obj
 0002:00001608       ??_C@_05KIOIEIPJ@SHEET?$AA@ 10062608     LexCLW.obj
 0002:00001610       ??_C@_06MDMHKGOO@REPORT?$AA@ 10062610     LexCLW.obj
 0002:00001618       ??_C@_05DCKPDKKB@QUEUE?$AA@ 10062618     LexCLW.obj
 0002:00001620       ??_C@_06OCONPLCM@OPTION?$AA@ 10062620     LexCLW.obj
 0002:00001628       ??_C@_03OJECKHGM@OLE?$AA@  10062628     LexCLW.obj
 0002:0000162c       ??_C@_07DDBPMOEE@MENUBAR?$AA@ 1006262c     LexCLW.obj
 0002:00001634       ??_C@_04IILMDFMO@MENU?$AA@ 10062634     LexCLW.obj
 0002:0000163c       ??_C@_06MFNLEOCO@HEADER?$AA@ 1006263c     LexCLW.obj
 0002:00001644       ??_C@_05NAIABEH@GROUP?$AA@ 10062644     LexCLW.obj
 0002:0000164c       ??_C@_04HPGCGPG@FORM?$AA@  1006264c     LexCLW.obj
 0002:00001654       ??_C@_06NLFGPPOL@FOOTER?$AA@ 10062654     LexCLW.obj
 0002:0000165c       ??_C@_04PMPMHNFI@FILE?$AA@ 1006265c     LexCLW.obj
 0002:00001664       ??_C@_06EAPOAKCB@DETAIL?$AA@ 10062664     LexCLW.obj
 0002:0000166c       ??_C@_05IGDGDCPA@CLASS?$AA@ 1006266c     LexCLW.obj
 0002:00001674       ??_C@_0M@GPGGNAFB@APPLICATION?$AA@ 10062674     LexCLW.obj
 0002:00001680       ??_C@_06KOEFFJON@RECORD?$AA@ 10062680     LexCLW.obj
 0002:00001688       ??_C@_06BMGPECHM@MODULE?$AA@ 10062688     LexCLW.obj
 0002:00001690       ??_C@_04KGNEGCGI@LOOP?$AA@ 10062690     LexCLW.obj
 0002:00001698       ??_C@_04PJFINEKF@JOIN?$AA@ 10062698     LexCLW.obj
 0002:000016a0       ??_C@_09OFFKHHAA@INTERFACE?$AA@ 100626a0     LexCLW.obj
 0002:000016ac       ??_C@_07IOFKDEEC@ITEMIZE?$AA@ 100626ac     LexCLW.obj
 0002:000016b4       ??_C@_02NJNGHICB@IF?$AA@   100626b4     LexCLW.obj
 0002:000016b8       ??_C@_07LBDEDADF@EXECUTE?$AA@ 100626b8     LexCLW.obj
 0002:000016c0       ??_C@_04OGNCDOIK@CASE?$AA@ 100626c0     LexCLW.obj
 0002:000016c8       ??_C@_05ILMMJGEC@BEGIN?$AA@ 100626c8     LexCLW.obj
 0002:000016d0       ??_C@_06INBBKPI@ACCEPT?$AA@ 100626d0     LexCLW.obj
 0002:000016d8       ??_C@_03HMCGBKKA@MAP?$AA@  100626d8     LexCLW.obj
 0002:000016dc       ??_C@_09JAJIBMMM@PROCEDURE?$AA@ 100626dc     LexCLW.obj
 0002:000016e8       ??_C@_07DGMOLMLC@clarion?$AA@ 100626e8     LexCLW.obj
 0002:000016f0       ??_C@_0O@FFPAJFL@clarionnocase?$AA@ 100626f0     LexCLW.obj
 0002:00001700       ??_C@_0M@EALHFGP@UserDefined?$AA@ 10062700     LexCmake.obj
 0002:0000170c       ??_C@_0L@PBGCNDPG@Parameters?$AA@ 1006270c     LexCmake.obj
 0002:00001718       ??_C@_08JNEOMACB@Commands?$AA@ 10062718     LexCmake.obj
 0002:00001738       ??_C@_04JLPIBDPH@ELSE?$AA@ 10062738     LexCmake.obj
 0002:00001740       ??_C@_0L@NFFKOHFF@ENDFOREACH?$AA@ 10062740     LexCmake.obj
 0002:0000174c       ??_C@_08EGINBKCA@ENDMACRO?$AA@ 1006274c     LexCmake.obj
 0002:00001758       ??_C@_08GKDKNPDI@ENDWHILE?$AA@ 10062758     LexCmake.obj
 0002:00001764       ??_C@_05DLHFLCAN@ENDIF?$AA@ 10062764     LexCmake.obj
 0002:0000176c       ??_C@_06GCLPDJA@ELSEIF?$AA@ 1006276c     LexCmake.obj
 0002:00001774       ??_C@_07HPONFJGF@FOREACH?$AA@ 10062774     LexCmake.obj
 0002:0000177c       ??_C@_05JBAGINA@MACRO?$AA@ 1006277c     LexCmake.obj
 0002:00001784       ??_C@_05HOGNLLBB@cmake?$AA@ 10062784     LexCmake.obj
 0002:0000178c       ??_C@_0BC@JCPHGJPL@Extended?5Keywords?$AA@ 1006278c     LexCOBOL.obj
 0002:000017a0       ??_C@_0L@GPICLHCL@B?5Keywords?$AA@ 100627a0     LexCOBOL.obj
 0002:000017ac       ??_C@_0L@PGGANBCK@A?5Keywords?$AA@ 100627ac     LexCOBOL.obj
 0002:000017c8       ??_C@_07BNGFJMOB@section?$AA@ 100627c8     LexCOBOL.obj
 0002:000017d0       ??_C@_0N@ELKMEGE@declaratives?$AA@ 100627d0     LexCOBOL.obj
 0002:000017e0       ??_C@_08DHDHNDEI@division?$AA@ 100627e0     LexCOBOL.obj
 0002:000017ec       ??_C@_05LEFLDEE@COBOL?$AA@ 100627ec     LexCOBOL.obj
 0002:00001800       ??_C@_04PFOEMICB@conf?$AA@ 10062800     LexConf.obj
 0002:00001808       ??_C@_0BM@MKCJDEDG@Global?5classes?5and?5typedefs?$AA@ 10062808     LexCPP.obj
 0002:00001824       ??_C@_06CGLFEPBO@Unused?$AA@ 10062824     LexCPP.obj
 0002:0000182c       ??_C@_0BP@DJPBDEAM@Documentation?5comment?5keywords?$AA@ 1006282c     LexCPP.obj
 0002:00001864       ??_C@_06JEJEKGIK@region?$AA@ 10062864     LexCPP.obj
 0002:0000186c       ??_C@_07FHOHOHLG@include?$AA@ 1006286c     LexCPP.obj
 0002:00001874       ??_C@_03JJGEILLF@?1?1?$CB?$AA@ 10062874     LexCPP.obj
 0002:00001878       ??_C@_04KDBADGOP@?1?1?1?1?$AA@ 10062878     LexCPP.obj
 0002:00001880       ??_C@_03HOHKGDL@?1?1?1?$AA@ 10062880     LexCPP.obj
 0002:00001884       ??_C@_03JPKPEJFO@?1?$CK?$CB?$AA@ 10062884     LexCPP.obj
 0002:00001888       ??_C@_03HMFLJAJF@?1?$CK?$CK?$AA@ 10062888     LexCPP.obj
 0002:0000188c       ??_C@_04BCJJGJPP@uuid?$AA@ 1006288c     LexCPP.obj
 0002:00001894       ??_C@_0BI@JEJDLEMC@lexer?4cpp?4allow?4dollars?$AA@ 10062894     LexCPP.obj
 0002:000018ac       ??_C@_0M@MIDLPJGF@$?$EA?2?$CG?$DM?$DO?$CD?$HL?$HN?$FL?$FN?$AA@ 100628ac     LexCPP.obj
 0002:000018b8       ??_C@_02BEIMNFAD@?$CL?9?$AA@ 100628b8     LexCPP.obj
 0002:000018bc       ??_C@_0BC@OHBHLMFK@?$CI?$FL?$HL?$DN?0?3?$DL?$CB?$CF?$FO?$CG?$CK?$HM?$DP?$HO?$CL?9?$AA@ 100628bc     LexCPP.obj
 0002:000018d0       ??_C@_03IMOGGJKI@cpp?$AA@  100628d0     LexCPP.obj
 0002:000018d4       ??_C@_09ELEICEJI@cppnocase?$AA@ 100628d4     LexCPP.obj
 0002:000018e0       ??_C@_09KLHEJKNK@Modifiers?$AA@ 100628e0     LexCrontab.obj
 0002:000018ec       ??_C@_0BD@BFCHFGAH@nnCrontab?5keywords?$AA@ 100628ec     LexCrontab.obj
 0002:00001900       ??_C@_0CB@CIKPDNHA@Section?5keywords?5and?5Forth?5words@ 10062900     LexCrontab.obj
 0002:00001934       ??_C@_09EHEKHEHM@nncrontab?$AA@ 10062934     LexCrontab.obj
 0002:00001940       ??_C@_0O@GLECBIBN@User?5keywords?$AA@ 10062940     LexCsound.obj
 0002:00001950       ??_C@_0BC@OKCGODIB@Header?5Statements?$AA@ 10062950     LexCsound.obj
 0002:00001964       ??_C@_07ONEAPODO@Opcodes?$AA@ 10062964     LexCsound.obj
 0002:0000197c       ??_C@_05DIDKNPEL@endin?$AA@ 1006297c     LexCsound.obj
 0002:00001984       ??_C@_05HALPBNGI@instr?$AA@ 10062984     LexCsound.obj
 0002:0000198c       ??_C@_06FBCAPBCN@csound?$AA@ 1006298c     LexCsound.obj
 0002:00001994       ??_C@_0CB@BMMDAPDE@Browser?9Specific?5Pseudo?9elements@ 10062994     LexCSS.obj
 0002:000019b8       ??_C@_0CA@NCCKGFMA@Browser?9Specific?5Pseudo?9classes?$AA@ 100629b8     LexCSS.obj
 0002:000019d8       ??_C@_0CA@JMPIIGEC@Browser?9Specific?5CSS?5Properties?$AA@ 100629d8     LexCSS.obj
 0002:000019f8       ??_C@_0BA@BANHMDEM@Pseudo?9elements?$AA@ 100629f8     LexCSS.obj
 0002:00001a08       ??_C@_0BA@EIGAIJCC@CSS3?5Properties?$AA@ 10062a08     LexCSS.obj
 0002:00001a18       ??_C@_0BA@JFPGFAKH@CSS2?5Properties?$AA@ 10062a18     LexCSS.obj
 0002:00001a28       ??_C@_0P@HAPNCFAL@Pseudo?9classes?$AA@ 10062a28     LexCSS.obj
 0002:00001a38       ??_C@_0BA@CIDMDMGJ@CSS1?5Properties?$AA@ 10062a38     LexCSS.obj
 0002:00001a6c       ??_C@_09INDNFDCH@important?$AA@ 10062a6c     LexCSS.obj
 0002:00001a78       ??_C@_03KFINIEDC@css?$AA@  10062a78     LexCSS.obj
 0002:00001a7c       ??_C@_0L@CKCMFKGG@Keywords?57?$AA@ 10062a7c     LexD.obj
 0002:00001a88       ??_C@_0L@DDDHGLCH@Keywords?56?$AA@ 10062a88     LexD.obj
 0002:00001a94       ??_C@_0L@BIBKDIOE@Keywords?55?$AA@ 10062a94     LexD.obj
 0002:00001aa0       ??_C@_0BN@MAGGKOCJ@Type?5definitions?5and?5aliases?$AA@ 10062aa0     LexD.obj
 0002:00001ae0       ??_C@_0BF@LOHPHCCE@lexer?4d?4fold?4at?4else?$AA@ 10062ae0     LexD.obj
 0002:00001af8       ??_C@_01LPLHEDKD@d?$AA@    10062af8     LexD.obj
 0002:00001b04       ??_C@_04KLFNICNF@once?$AA@ 10062b04     LexEiffel.obj
 0002:00001b0c       ??_C@_07PHKOPNKE@inspect?$AA@ 10062b0c     LexEiffel.obj
 0002:00001b14       ??_C@_04HNEBHLOP@from?$AA@ 10062b14     LexEiffel.obj
 0002:00001b1c       ??_C@_08DNIEAOMA@deferred?$AA@ 10062b1c     LexEiffel.obj
 0002:00001b28       ??_C@_05KJHPNPAA@check?$AA@ 10062b28     LexEiffel.obj
 0002:00001b30       ??_C@_06BLINBKAD@eiffel?$AA@ 10062b30     LexEiffel.obj
 0002:00001b38       ??_C@_08PCLDHKME@eiffelkw?$AA@ 10062b38     LexEiffel.obj
 0002:00001b4c       ??_C@_07HMEMGDHJ@receive?$AA@ 10062b4c     LexErlang.obj
 0002:00001b54       ??_C@_05BKABJGDH@query?$AA@ 10062b54     LexErlang.obj
 0002:00001b5c       ??_C@_03GJLCGEKO@fun?$AA@  10062b5c     LexErlang.obj
 0002:00001b60       ??_C@_06EKFKPOGJ@erlang?$AA@ 10062b60     LexErlang.obj
 0002:00001b68       ??_C@_0CE@MBNJKCLB@Extended?5and?5user?5defined?5functi@ 10062b68     LexEScript.obj
 0002:00001b8c       ??_C@_0BE@FOFHGPF@Intrinsic?5functions?$AA@ 10062b8c     LexEScript.obj
 0002:00001bb0       ??_C@_0BH@JNDCKEPB@escript?4case?4sensitive?$AA@ 10062bb0     LexEScript.obj
 0002:00001bc8       ??_C@_07FJAPCAKN@endcase?$AA@ 10062bc8     LexEScript.obj
 0002:00001bd0       ??_C@_08BFJGOBBP@endwhile?$AA@ 10062bd0     LexEScript.obj
 0002:00001bdc       ??_C@_0M@ICNMCCJI@endfunction?$AA@ 10062bdc     LexEScript.obj
 0002:00001be8       ??_C@_0L@CGDNAKKI@endprogram?$AA@ 10062be8     LexEScript.obj
 0002:00001bf4       ??_C@_0L@GDDHFFHF@endforeach?$AA@ 10062bf4     LexEScript.obj
 0002:00001c00       ??_C@_06KFJOMDNC@endfor?$AA@ 10062c00     LexEScript.obj
 0002:00001c08       ??_C@_07MHLKLKDM@program?$AA@ 10062c08     LexEScript.obj
 0002:00001c10       ??_C@_07ICLAOFOB@foreach?$AA@ 10062c10     LexEScript.obj
 0002:00001c18       ??_C@_07ILKIOGIP@escript?$AA@ 10062c18     LexEScript.obj
 0002:00001c34       ??_C@_08KBCCBCJC@flagship?$AA@ 10062c34     LexFlagship.obj
 0002:00001c40       ??_C@_0BL@PIEADAAH@string?5definition?5keywords?$AA@ 10062c40     LexForth.obj
 0002:00001c5c       ??_C@_0BM@MDNHKIFB@prewords?5with?5two?5arguments?$AA@ 10062c5c     LexForth.obj
 0002:00001c78       ??_C@_0BL@DCPKEGOL@prewords?5with?5one?5argument?$AA@ 10062c78     LexForth.obj
 0002:00001c94       ??_C@_0BB@BLPEHIIN@definition?5words?$AA@ 10062c94     LexForth.obj
 0002:00001ca8       ??_C@_08KBIEDDDE@keywords?$AA@ 10062ca8     LexForth.obj
 0002:00001cb4       ??_C@_0BB@NAMFGMEB@control?5keywords?$AA@ 10062cb4     LexForth.obj
 0002:00001ce4       ??_C@_05LEBIBLLD@forth?$AA@ 10062ce4     LexForth.obj
 0002:00001cfc       ??_C@_04KLGPBGCH@?$CBms$?$AA@ 10062cfc     LexFortran.obj
 0002:00001d04       ??_C@_04NMLPCHDG@?$CKms$?$AA@ 10062d04     LexFortran.obj
 0002:00001d0c       ??_C@_04IJFMBNAO@cms$?$AA@ 10062d0c     LexFortran.obj
 0002:00001d14       ??_C@_05OMMLMFD@?$CBdir$?$AA@ 10062d14     LexFortran.obj
 0002:00001d1c       ??_C@_05GEALEMJA@?$CKdir$?$AA@ 10062d1c     LexFortran.obj
 0002:00001d24       ??_C@_05EMFMBHDE@cdir$?$AA@ 10062d24     LexFortran.obj
 0002:00001d2c       ??_C@_05FJPOMKKM@?$CBdec$?$AA@ 10062d2c     LexFortran.obj
 0002:00001d34       ??_C@_05DDDJDKGP@?$CKdec$?$AA@ 10062d34     LexFortran.obj
 0002:00001d3c       ??_C@_05BLGOGBML@cdec$?$AA@ 10062d3c     LexFortran.obj
 0002:00001d44       ??_C@_08EJPINANN@endwhere?$AA@ 10062d44     LexFortran.obj
 0002:00001d50       ??_C@_07BMCEKKBG@endtype?$AA@ 10062d50     LexFortran.obj
 0002:00001d58       ??_C@_0O@CEJFIEDE@endsubroutine?$AA@ 10062d58     LexFortran.obj
 0002:00001d68       ??_C@_09JBGMBAOF@endmodule?$AA@ 10062d68     LexFortran.obj
 0002:00001d74       ??_C@_09HCHCFNLM@endforall?$AA@ 10062d74     LexFortran.obj
 0002:00001d80       ??_C@_07ECHIDDOB@endenum?$AA@ 10062d80     LexFortran.obj
 0002:00001d88       ??_C@_05CJPJHNFJ@enddo?$AA@ 10062d88     LexFortran.obj
 0002:00001d90       ??_C@_0N@LMOMOMBG@endblockdata?$AA@ 10062d90     LexFortran.obj
 0002:00001da0       ??_C@_08DLJOBJI@endblock?$AA@ 10062da0     LexFortran.obj
 0002:00001dac       ??_C@_0N@LILJBHHN@endassociate?$AA@ 10062dac     LexFortran.obj
 0002:00001dbc       ??_C@_0L@EJJGCMMC@subroutine?$AA@ 10062dbc     LexFortran.obj
 0002:00001dc8       ??_C@_06BIEEJMKO@module?$AA@ 10062dc8     LexFortran.obj
 0002:00001dd0       ??_C@_04DBJPMPLO@enum?$AA@ 10062dd0     LexFortran.obj
 0002:00001dd8       ??_C@_09GCKAPBAD@blockdata?$AA@ 10062dd8     LexFortran.obj
 0002:00001de4       ??_C@_05PIBOEKAB@block?$AA@ 10062de4     LexFortran.obj
 0002:00001dec       ??_C@_09GGPFAKGI@associate?$AA@ 10062dec     LexFortran.obj
 0002:00001df8       ??_C@_05LCFPHLEE@where?$AA@ 10062df8     LexFortran.obj
 0002:00001e00       ??_C@_06PLFKNBPH@forall?$AA@ 10062e00     LexFortran.obj
 0002:00001e08       ??_C@_07MIECNAEK@fortran?$AA@ 10062e08     LexFortran.obj
 0002:00001e10       ??_C@_03HBNFNLBN@f77?$AA@  10062e10     LexFortran.obj
 0002:00001e14       ??_C@_0BE@HHOHHCPF@Keywords?54?5?$CIunused?$CJ?$AA@ 10062e14     LexGAP.obj
 0002:00001e28       ??_C@_0BE@FONMGHHG@Keywords?53?5?$CIunused?$CJ?$AA@ 10062e28     LexGAP.obj
 0002:00001e3c       ??_C@_0L@FHFLKOCD@Keywords?52?$AA@ 10062e3c     LexGAP.obj
 0002:00001e48       ??_C@_0L@HMHGPNOA@Keywords?51?$AA@ 10062e48     LexGAP.obj
 0002:00001e68       ??_C@_02PINLEBJB@fi?$AA@   10062e68     LexGAP.obj
 0002:00001e6c       ??_C@_02ECKEAEFD@od?$AA@   10062e6c     LexGAP.obj
 0002:00001e70       ??_C@_06LGDBIFHB@repeat?$AA@ 10062e70     LexGAP.obj
 0002:00001e78       ??_C@_03BOGADHLI@gap?$AA@  10062e78     LexGAP.obj
 0002:00001e7c       ??_C@_07DFGIDBBA@Control?$AA@ 10062e7c     LexGui4Cli.obj
 0002:00001e84       ??_C@_06HEBKAGDH@Events?$AA@ 10062e84     LexGui4Cli.obj
 0002:00001e8c       ??_C@_07CJIGNMEG@Globals?$AA@ 10062e8c     LexGui4Cli.obj
 0002:00001eac       ??_C@_07FJJIIMCL@gui4cli?$AA@ 10062eac     LexGui4Cli.obj
 0002:00001eb4       ??_C@_02BAABKJLB@?9?9?$AA@ 10062eb4     LexHaskell.obj
 0002:00001eb8       ??_C@_02KKLKPEOF@?9?$HN?$AA@ 10062eb8     LexHaskell.obj
 0002:00001ebc       ??_C@_02HIDAPLLD@?$HL?9?$AA@ 10062ebc     LexHaskell.obj
 0002:00001ec0       ??_C@_06EOGGDCGF@import?$AA@ 10062ec0     LexHaskell.obj
 0002:00001ec8       ??_C@_08EMNENPBA@instance?$AA@ 10062ec8     LexHaskell.obj
 0002:00001ed4       ??_C@_04PJOLNDGD@data?$AA@ 10062ed4     LexHaskell.obj
 0002:00001edc       ??_C@_02ENLJKNMP@as?$AA@   10062edc     LexHaskell.obj
 0002:00001ee0       ??_C@_09NPLHLKJP@qualified?$AA@ 10062ee0     LexHaskell.obj
 0002:00001eec       ??_C@_07FDDLPECE@haskell?$AA@ 10062eec     LexHaskell.obj
 0002:00001ef4       ??_C@_0BG@NIGODHBL@SGML?5and?5DTD?5keywords?$AA@ 10062ef4     LexHTML.obj
 0002:00001f0c       ??_C@_0N@EAPPEJJD@PHP?5keywords?$AA@ 10062f0c     LexHTML.obj
 0002:00001f1c       ??_C@_0BA@KDELBBJC@Python?5keywords?$AA@ 10062f1c     LexHTML.obj
 0002:00001f2c       ??_C@_0BC@CGOHNKBO@VBScript?5keywords?$AA@ 10062f2c     LexHTML.obj
 0002:00001f40       ??_C@_0BE@LANFEFNM@JavaScript?5keywords?$AA@ 10062f40     LexHTML.obj
 0002:00001f54       ??_C@_0BN@FHDAAOGH@HTML?5elements?5and?5attributes?$AA@ 10062f54     LexHTML.obj
 0002:00001fac       ??_C@_03PJHHNEEI@xml?$AA@  10062fac     LexHTML.obj
 0002:00001fb0       ??_C@_03NMHPGDBB@php?$AA@  10062fb0     LexHTML.obj
 0002:00001fb4       ??_C@_04MEENAGHB@jscr?$AA@ 10062fb4     LexHTML.obj
 0002:00001fbc       ??_C@_05EAFDFIPP@javas?$AA@ 10062fbc     LexHTML.obj
 0002:00001fc4       ??_C@_04CIOECGBI@pyth?$AA@ 10062fc4     LexHTML.obj
 0002:00001fcc       ??_C@_03NPKOOKNI@vbs?$AA@  10062fcc     LexHTML.obj
 0002:00001fd0       ??_C@_03LOJEKLML@src?$AA@  10062fd0     LexHTML.obj
 0002:00001fd4       ??_C@_07GJGNEJFD@comment?$AA@ 10062fd4     LexHTML.obj
 0002:00001fdc       ??_C@_06OLONEIEH@script?$AA@ 10062fdc     LexHTML.obj
 0002:00001fe4       ??_C@_0CA@KKGIOHJF@meta?5link?5img?5area?5br?5hr?5input?5?$AA@ 10062fe4     LexHTML.obj
 0002:00002004       ??_C@_03IBMCFENF@rem?$AA@  10063004     LexHTML.obj
 0002:00002008       ??_C@_03BHEEIFFN@def?$AA@  10063008     LexHTML.obj
 0002:0000200c       ??_C@_07HKFAGCPM@?$FLCDATA?$FL?$AA@ 1006300c     LexHTML.obj
 0002:00002014       ??_C@_0BA@IEIDKNKF@?4xXabcdefABCDEF?$AA@ 10063014     LexHTML.obj
 0002:00002024       ??_C@_01GEODFPGF@?8?$AA@   10063024     LexHTML.obj
 0002:00002028       ??_C@_03DKMEACPB@?$DM?$DM?$DM?$AA@ 10063028     LexHTML.obj
 0002:0000202c       ??_C@_01BJJEKLCA@?$CC?$AA@ 1006302c     LexHTML.obj
 0002:00002030       ??_C@_07POJLBKCE@?4?9_?3?$CB?$CD?1?$AA@ 10063030     LexHTML.obj
 0002:00002038       ??_C@_07LFMIKGNG@?4?9_?3?$CB?$CD?$FL?$AA@ 10063038     LexHTML.obj
 0002:00002040       ??_C@_06OENAGPMB@?4?9_?3?$CB?$CD?$AA@ 10063040     LexHTML.obj
 0002:00002048       ??_C@_0BI@KPMHLOBI@lexer?4xml?4allow?4scripts?$AA@ 10063048     LexHTML.obj
 0002:00002060       ??_C@_0BJ@KEELFFOH@html?4tags?4case?4sensitive?$AA@ 10063060     LexHTML.obj
 0002:0000207c       ??_C@_0BH@GBOOICJN@fold?4hypertext?4heredoc?$AA@ 1006307c     LexHTML.obj
 0002:00002094       ??_C@_0BH@OGPJLDMO@fold?4hypertext?4comment?$AA@ 10063094     LexHTML.obj
 0002:000020ac       ??_C@_0BH@KBBGMFLC@fold?4html?4preprocessor?$AA@ 100630ac     LexHTML.obj
 0002:000020c4       ??_C@_09ECBFGDBA@fold?4html?$AA@ 100630c4     LexHTML.obj
 0002:000020d0       ??_C@_0BF@DGBNIIPN@asp?4default?4language?$AA@ 100630d0     LexHTML.obj
 0002:000020e8       ??_C@_09KAGKDMLP@hypertext?$AA@ 100630e8     LexHTML.obj
 0002:000020f4       ??_C@_09CIKJMIPL@phpscript?$AA@ 100630f4     LexHTML.obj
 0002:00002100       ??_C@_0BG@CLPLCFFL@User?5defined?5keywords?$AA@ 10063100     LexInno.obj
 0002:00002118       ??_C@_0BA@BLPJDNOG@Pascal?5keywords?$AA@ 10063118     LexInno.obj
 0002:00002128       ??_C@_0BI@KAKFICNK@Preprocessor?5directives?$AA@ 10063128     LexInno.obj
 0002:00002140       ??_C@_08FBPDBPOE@Sections?$AA@ 10063140     LexInno.obj
 0002:00002168       ??_C@_04NDFOBODE@code?$AA@ 10063168     LexInno.obj
 0002:00002170       ??_C@_04NGCKAMKM@inno?$AA@ 10063170     LexInno.obj
 0002:00002178       ??_C@_03JCHMFDLA@kix?$AA@  10063178     LexKix.obj
 0002:0000217c       ??_C@_0CA@KEKLBCMF@Functions?5and?5special?5operators?$AA@ 1006317c     LexLisp.obj
 0002:000021a8       ??_C@_04FKLJIFNI@lisp?$AA@ 100631a8     LexLisp.obj
 0002:000021b0       ??_C@_0BE@HICDFDOA@Predefined?5keywords?$AA@ 100631b0     LexLout.obj
 0002:000021c4       ??_C@_0BG@IPJLBNL@Predefined?5delimiters?$AA@ 100631c4     LexLout.obj
 0002:000021dc       ??_C@_0BH@PGFICBHF@Predefined?5identifiers?$AA@ 100631dc     LexLout.obj
 0002:00002204       ??_C@_04IODMLACN@?$EAEnd?$AA@ 10063204     LexLout.obj
 0002:0000220c       ??_C@_06CPFDHPJO@?$EABegin?$AA@ 1006320c     LexLout.obj
 0002:00002214       ??_C@_04BPDDGDLC@lout?$AA@ 10063214     LexLout.obj
 0002:0000221c       ??_C@_05ELAHBAMJ@user4?$AA@ 1006321c     LexLua.obj
 0002:00002224       ??_C@_0CG@GFDPFIJB@?$CIcoroutines?$CJ?0?5I?1O?5?$CG?5system?5facil@ 10063224     LexLua.obj
 0002:0000224c       ??_C@_0CB@CPGPPNGP@String?0?5?$CItable?$CJ?5?$CG?5math?5functions@ 1006324c     LexLua.obj
 0002:00002270       ??_C@_0BA@LPBKOJMC@Basic?5functions?$AA@ 10063270     LexLua.obj
 0002:000022a4       ??_C@_03OFDJAGCM@?9?9?$FL?$AA@ 100632a4     LexLua.obj
 0002:000022a8       ??_C@_03PPIMAFGL@?$CC?8?2?$AA@ 100632a8     LexLua.obj
 0002:000022ac       ??_C@_0BG@PJFCBKF@?$CK?1?9?$CL?$CI?$CJ?$DN?$HL?$HN?$HO?$FL?$FN?$DL?$DM?$DO?0?4?$FO?$CF?3?$CD?$AA@ 100632ac     LexLua.obj
 0002:000022c4       ??_C@_0BA@KPJDGBIC@?4?9?$CLabcdefABCDEF?$AA@ 100632c4     LexLua.obj
 0002:000022d4       ??_C@_03IBJHJIAF@lua?$AA@  100632d4     LexLua.obj
 0002:000022d8       ??_C@_0DA@BOBHAPGA@Fold?5Containers?5?$CImethod?0?5proc?0?5b@ 100632d8     LexMagik.obj
 0002:00002308       ??_C@_0CJ@DIDGHFHE@Characters?5?$CIspace?0?5tab?0?5newline?0@ 10063308     LexMagik.obj
 0002:00002334       ??_C@_0BM@IKHKNFEA@Flow?5?$CIif?0?5then?0?5elif?0?5else?$CJ?$AA@ 10063334     LexMagik.obj
 0002:00002350       ??_C@_0CB@FBNMAKOG@Containers?5?$CImethod?0?5block?0?5proc?$CJ@ 10063350     LexMagik.obj
 0002:00002374       ??_C@_0BM@IBIKGHMA@Pragmatic?5?$CIpragma?0?5private?$CJ?$AA@ 10063374     LexMagik.obj
 0002:00002390       ??_C@_0DD@BMGKAFMM@Accessors?5?$CIlocal?0?5global?0?5self?0?5@ 10063390     LexMagik.obj
 0002:000023e0       ??_C@_07PEBGJCFJ@magiksf?$AA@ 100633e0     LexMagik.obj
 0002:000023f8       ??_C@_06CICGHHNN@matlab?$AA@ 100633f8     LexMatlab.obj
 0002:00002400       ??_C@_06FGDDDMBA@octave?$AA@ 10063400     LexMatlab.obj
 0002:00002408       ??_C@_07NCBBGOLB@MetaFun?$AA@ 10063408     LexMetapost.obj
 0002:00002410       ??_C@_08DDBNMLHM@MetaPost?$AA@ 10063410     LexMetapost.obj
 0002:00002428       ??_C@_0L@OENBCFJ@?$CFD?5?2module?$AA@ 10063428     LexMetapost.obj
 0002:00002434       ??_C@_0BC@OJONICKK@interface?$DNmetafun?$AA@ 10063434     LexMetapost.obj
 0002:00002448       ??_C@_0N@JGGILJJG@interface?$DNmp?$AA@ 10063448     LexMetapost.obj
 0002:00002458       ??_C@_0BD@LJEDPOHM@interface?$DNmetapost?$AA@ 10063458     LexMetapost.obj
 0002:0000246c       ??_C@_0P@IALPPEAN@interface?$DNnone?$AA@ 1006346c     LexMetapost.obj
 0002:0000247c       ??_C@_04CFKIDNCB@etex?$AA@ 1006347c     LexMetapost.obj
 0002:00002484       ??_C@_0M@OJGPKPPE@verbatimtex?$AA@ 10063484     LexMetapost.obj
 0002:00002490       ??_C@_04JHIIOBDB@btex?$AA@ 10063490     LexMetapost.obj
 0002:00002498       ??_C@_0CB@DHGCLCOC@lexer?4metapost?4interface?4default@ 10063498     LexMetapost.obj
 0002:000024bc       ??_C@_0BP@IAHCDPCF@lexer?4metapost?4comment?4process?$AA@ 100634bc     LexMetapost.obj
 0002:000024dc       ??_C@_08HACNGGNL@metapost?$AA@ 100634dc     LexMetapost.obj
 0002:000024e8       ??_C@_0BD@DILMIOCP@Predefined?5Symbols?$AA@ 100634e8     LexMMIXAL.obj
 0002:000024fc       ??_C@_0BB@PCIDOIIP@Special?5Register?$AA@ 100634fc     LexMMIXAL.obj
 0002:00002510       ??_C@_0BA@FCEGOHHF@Operation?5Codes?$AA@ 10063510     LexMMIXAL.obj
 0002:00002530       ??_C@_06IGGMAJND@mmixal?$AA@ 10063530     LexMMIXAL.obj
 0002:0000253c       ??_C@_07LGIIPPHI@ABORTED?$AA@ 1006353c     LexMPT.obj
 0002:00002544       ??_C@_06OHCJKBJM@FAILED?$AA@ 10063544     LexMPT.obj
 0002:0000254c       ??_C@_06MBANMAIC@PASSED?$AA@ 1006354c     LexMPT.obj
 0002:00002554       ??_C@_03KHJDFILH@lot?$AA@  10063554     LexMPT.obj
 0002:00002558       ??_C@_09JPEDIMAC@Operators?$AA@ 10063558     LexMSSQL.obj
 0002:00002564       ??_C@_0BJ@KLHHAMEN@System?5Stored?5Procedures?$AA@ 10063564     LexMSSQL.obj
 0002:00002580       ??_C@_09GLFFPDKE@Functions?$AA@ 10063580     LexMSSQL.obj
 0002:0000258c       ??_C@_0BB@INLDEFLJ@Global?5variables?$AA@ 1006358c     LexMSSQL.obj
 0002:000025a0       ??_C@_0O@DFHHMAFJ@System?5tables?$AA@ 100635a0     LexMSSQL.obj
 0002:000025b0       ??_C@_0L@PAJDALGN@Data?5Types?$AA@ 100635b0     LexMSSQL.obj
 0002:000025bc       ??_C@_0L@FJKBDHCL@Statements?$AA@ 100635bc     LexMSSQL.obj
 0002:000025e8       ??_C@_05EAFKHBAM@begin?$AA@ 100635e8     LexMSSQL.obj
 0002:000025f0       ??_C@_05KBNEPBHJ@mssql?$AA@ 100635f0     LexMSSQL.obj
 0002:000025f8       ??_C@_0BA@KGLKDDAP@User?5Keywords?53?$AA@ 100635f8     LexMySQL.obj
 0002:00002608       ??_C@_0BA@LPKBACEO@User?5Keywords?52?$AA@ 10063608     LexMySQL.obj
 0002:00002618       ??_C@_0BA@JEIMFBIN@User?5Keywords?51?$AA@ 10063618     LexMySQL.obj
 0002:00002628       ??_C@_0BD@EPCBIJLO@Procedure?5keywords?$AA@ 10063628     LexMySQL.obj
 0002:0000263c       ??_C@_0BB@PODCHMNL@System?5Variables?$AA@ 1006363c     LexMySQL.obj
 0002:00002650       ??_C@_0BB@HHHCFMDA@Database?5Objects?$AA@ 10063650     LexMySQL.obj
 0002:00002664       ??_C@_0P@LCPBGGBD@Major?5Keywords?$AA@ 10063664     LexMySQL.obj
 0002:0000269c       ??_C@_04DJNPKEDD@when?$AA@ 1006369c     LexMySQL.obj
 0002:000026a4       ??_C@_04GKOOIABA@loop?$AA@ 100636a4     LexMySQL.obj
 0002:000026ac       ??_C@_0BE@CONLADAH@fold?4sql?4only?4begin?$AA@ 100636ac     LexMySQL.obj
 0002:000026c0       ??_C@_05OLGEOJNI@mysql?$AA@ 100636c0     LexMySQL.obj
 0002:000026d0       ??_C@_03EIPLJDPI@?$CC?$CC?$CC?$AA@ 100636d0     LexNimrod.obj
 0002:000026d4       ??_C@_02JMMFPCED@?$CC?$CC?$AA@ 100636d4     LexNimrod.obj
 0002:000026d8       ??_C@_0BM@NIJEIOGL@?$CI?$CJ?$FL?$FN?$HL?$HN?3?$DN?$DL?9?2?1?$CG?$CF$?$CB?$CL?$DM?$DO?$HM?$FO?$DP?0?4?$CK?$HO?$EA?$AA@ 100636d8     LexNimrod.obj
 0002:000026f4       ??_C@_0BD@GMEOIMKA@fold?4quotes?4nimrod?$AA@ 100636f4     LexNimrod.obj
 0002:00002708       ??_C@_0BE@HALGPGPN@fold?4comment?4nimrod?$AA@ 10063708     LexNimrod.obj
 0002:0000271c       ??_C@_06HEGPLAPO@nimrod?$AA@ 1006371c     LexNimrod.obj
 0002:00002724       ??_C@_06PKJMKMBL@Lables?$AA@ 10063724     LexNsis.obj
 0002:0000272c       ??_C@_09IJIPICN@Variables?$AA@ 1006372c     LexNsis.obj
 0002:0000274c       ??_C@_05OMNCHBKC@?$CBelse?$AA@ 1006374c     LexNsis.obj
 0002:00002754       ??_C@_09JEPMJOJB@PageExEnd?$AA@ 10063754     LexNsis.obj
 0002:00002760       ??_C@_0L@CBICIFBK@SectionEnd?$AA@ 10063760     LexNsis.obj
 0002:0000276c       ??_C@_0M@HIEHFOOK@FunctionEnd?$AA@ 1006376c     LexNsis.obj
 0002:00002778       ??_C@_0O@KDGGJOHH@SubSectionEnd?$AA@ 10063778     LexNsis.obj
 0002:00002788       ??_C@_0BA@NEDDNHAE@SectionGroupEnd?$AA@ 10063788     LexNsis.obj
 0002:00002798       ??_C@_06DELDAFHA@PageEx?$AA@ 10063798     LexNsis.obj
 0002:000027a0       ??_C@_0L@GJBPMMOJ@SubSection?$AA@ 100637a0     LexNsis.obj
 0002:000027ac       ??_C@_08PHKOHANG@Function?$AA@ 100637ac     LexNsis.obj
 0002:000027b8       ??_C@_0N@GPCDCDDC@SectionGroup?$AA@ 100637b8     LexNsis.obj
 0002:000027c8       ??_C@_07OEBDPOLH@Section?$AA@ 100637c8     LexNsis.obj
 0002:000027d0       ??_C@_09KFHBGMCH@?$CBmacroend?$AA@ 100637d0     LexNsis.obj
 0002:000027dc       ??_C@_06LFIHBJLG@?$CBendif?$AA@ 100637dc     LexNsis.obj
 0002:000027e4       ??_C@_06IHOCMDGL@?$CBmacro?$AA@ 100637e4     LexNsis.obj
 0002:000027ec       ??_C@_03LCJENEDG@?$CBif?$AA@ 100637ec     LexNsis.obj
 0002:000027f0       ??_C@_06PLCPGLGI@?$CBifdef?$AA@ 100637f0     LexNsis.obj
 0002:000027f8       ??_C@_07IAHPMLLN@?$CBifndef?$AA@ 100637f8     LexNsis.obj
 0002:00002800       ??_C@_0BA@HMCAMDPI@nsis?4ignorecase?$AA@ 10063800     LexNsis.obj
 0002:00002810       ??_C@_0O@EMHDNBLA@nsis?4uservars?$AA@ 10063810     LexNsis.obj
 0002:00002820       ??_C@_0BB@DABBLLAJ@nsis?4foldutilcmd?$AA@ 10063820     LexNsis.obj
 0002:00002834       ??_C@_04CFEBBECG@nsis?$AA@ 10063834     LexNsis.obj
 0002:0000283c       ??_C@_05EJJJEGDH@Sorts?$AA@ 1006383c     LexOpal.obj
 0002:00002850       ??_C@_05LAPONLG@false?$AA@ 10063850     LexOpal.obj
 0002:00002858       ??_C@_04LOAJBDKD@true?$AA@ 10063858     LexOpal.obj
 0002:00002860       ??_C@_04MJNNMNFO@opal?$AA@ 10063860     LexOpal.obj
 0002:00002868       ??_C@_0BC@ODBBAJBA@External?5Commands?$AA@ 10063868     LexOthers.obj
 0002:0000287c       ??_C@_0BC@EPINFOGP@Internal?5Commands?$AA@ 1006387c     LexOthers.obj
 0002:000028a0       ??_C@_05FAGFPHJG@start?$AA@ 100638a0     LexOthers.obj
 0002:000028a8       ??_C@_06DDDNEJEA@choice?$AA@ 100638a8     LexOthers.obj
 0002:000028b0       ??_C@_02OMFHPFAG@lh?$AA@   100638b0     LexOthers.obj
 0002:000028b4       ??_C@_08BLBOJJOE@loadhigh?$AA@ 100638b4     LexOthers.obj
 0002:000028c0       ??_C@_04OMFAIDPG@call?$AA@ 100638c0     LexOthers.obj
 0002:000028c8       ??_C@_05IEGMLJMJ@exist?$AA@ 100638c8     LexOthers.obj
 0002:000028d0       ??_C@_0L@MMKFMLG@errorlevel?$AA@ 100638d0     LexOthers.obj
 0002:000028dc       ??_C@_03KCHOJKKI@set?$AA@  100638dc     LexOthers.obj
 0002:000028e0       ??_C@_06FJNEHIA@prompt?$AA@ 100638e0     LexOthers.obj
 0002:000028e8       ??_C@_04MABHPDAO@goto?$AA@ 100638e8     LexOthers.obj
 0002:000028f0       ??_C@_04OFDNEFMC@echo?$AA@ 100638f0     LexOthers.obj
 0002:000028f8       ??_C@_02LKANKAOC@?$DP?5?$AA@ 100638f8     LexOthers.obj
 0002:000028fc       ??_C@_03ELIFGAKH@?$CK?$CK?$CK?$AA@ 100638fc     LexOthers.obj
 0002:00002900       ??_C@_04CEHGGKNE@?$DN?$DN?$DN?$DN?$AA@ 10063900     LexOthers.obj
 0002:00002908       ??_C@_04FJGDLDGL@?$CL?$CL?$CL?5?$AA@ 10063908     LexOthers.obj
 0002:00002910       ??_C@_03JMFMNIFM@?9?9?9?$AA@ 10063910     LexOthers.obj
 0002:00002914       ??_C@_07KHMCLHAO@Index?3?5?$AA@ 10063914     LexOthers.obj
 0002:0000291c       ??_C@_05IOOJDNMD@diff?5?$AA@ 1006391c     LexOthers.obj
 0002:00002924       ??_C@_07DCDMNPOE@msgctxt?$AA@ 10063924     LexOthers.obj
 0002:0000292c       ??_C@_06BJCNANBM@msgstr?$AA@ 1006392c     LexOthers.obj
 0002:00002934       ??_C@_05KEEDEJHB@msgid?$AA@ 10063934     LexOthers.obj
 0002:0000293c       ??_C@_05CLLLCGF@fuzzy?$AA@ 1006393c     LexOthers.obj
 0002:00002944       ??_C@_03MIOPLLBF@?$CD?0?5?$AA@ 10063944     LexOthers.obj
 0002:00002948       ??_C@_0CB@JAGDAFCA@lexer?4props?4allow?4initial?4spaces@ 10063948     LexOthers.obj
 0002:0000296c       ??_C@_06HCBJFCKC@remark?$AA@ 1006396c     LexOthers.obj
 0002:00002974       ??_C@_04DHOIHJPF@note?$AA@ 10063974     LexOthers.obj
 0002:0000297c       ??_C@_0N@ONGMIKKK@catastrophic?$AA@ 1006397c     LexOthers.obj
 0002:0000298c       ??_C@_05FAMCFOJB@fatal?$AA@ 1006398c     LexOthers.obj
 0002:00002994       ??_C@_07FPLKDJGL@warning?$AA@ 10063994     LexOthers.obj
 0002:0000299c       ??_C@_05KKCIMGE@error?$AA@ 1006399c     LexOthers.obj
 0002:000029a4       ??_C@_06NCMEJAKP@?4java?3?$AA@ 100639a4     LexOthers.obj
 0002:000029ac       ??_C@_01ODHLEDKK@?$CI?$AA@ 100639ac     LexOthers.obj
 0002:000029b0       ??_C@_04HBCLBONL@?7at?5?$AA@ 100639b0     LexOthers.obj
 0002:000029b8       ??_C@_08OIBILPGO@?5column?5?$AA@ 100639b8     LexOthers.obj
 0002:000029c4       ??_C@_05KFEICJBI@line?5?$AA@ 100639c4     LexOthers.obj
 0002:000029cc       ??_C@_07BLFOPCLK@?0?5file?5?$AA@ 100639cc     LexOthers.obj
 0002:000029d4       ??_C@_05KCOECMCO@Line?5?$AA@ 100639d4     LexOthers.obj
 0002:000029dc       ??_C@_06IFPFKNNJ@?3line?5?$AA@ 100639dc     LexOthers.obj
 0002:000029e4       ??_C@_06COKFEHGH@?5?5?5at?5?$AA@ 100639e4     LexOthers.obj
 0002:000029ec       ??_C@_06EGFLGOFJ@?5line?5?$AA@ 100639ec     LexOthers.obj
 0002:000029f4       ??_C@_04LNPKFDKO@?5at?5?$AA@ 100639f4     LexOthers.obj
 0002:000029fc       ??_C@_05KONKMCPF@file?5?$AA@ 100639fc     LexOthers.obj
 0002:00002a04       ??_C@_08FODMKPAE@at?5line?5?$AA@ 10063a04     LexOthers.obj
 0002:00002a10       ??_C@_04OJEGKOEN@?$CJ?5?3?5?$AA@ 10063a10     LexOthers.obj
 0002:00002a18       ??_C@_05GMIONKBG@?5at?5?$CI?$AA@ 10063a18     LexOthers.obj
 0002:00002a20       ??_C@_08MNEKKEOI@Warning?5?$AA@ 10063a20     LexOthers.obj
 0002:00002a2c       ??_C@_06BAOMBKPD@Error?5?$AA@ 10063a2c     LexOthers.obj
 0002:00002a34       ??_C@_09DBFLCGHN@?5on?5line?5?$AA@ 10063a34     LexOthers.obj
 0002:00002a40       ??_C@_04GJPPFNOH@?5in?5?$AA@ 10063a40     LexOthers.obj
 0002:00002a48       ??_C@_07BAMMBJFH@?0?5line?5?$AA@ 10063a48     LexOthers.obj
 0002:00002a50       ??_C@_06KFHGKDON@File?5?$CC?$AA@ 10063a50     LexOthers.obj
 0002:00002a58       ??_C@_08MHBEDHP@fortcom?3?$AA@ 10063a58     LexOthers.obj
 0002:00002a64       ??_C@_05FPENKJBB@cf90?9?$AA@ 10063a64     LexOthers.obj
 0002:00002a6c       ??_C@_04PHMFGFKF@?9?9?9?5?$AA@ 10063a6c     LexOthers.obj
 0002:00002a74       ??_C@_0BP@MKPDMEEN@lexer?4errorlist?4value?4separate?$AA@ 10063a74     LexOthers.obj
 0002:00002a94       ??_C@_05KMLLANON@batch?$AA@ 10063a94     LexOthers.obj
 0002:00002a9c       ??_C@_04GMLMBKFF@diff?$AA@ 10063a9c     LexOthers.obj
 0002:00002aa4       ??_C@_02LGCKDJNF@po?$AA@   10063aa4     LexOthers.obj
 0002:00002aa8       ??_C@_05PFKLEFAC@props?$AA@ 10063aa8     LexOthers.obj
 0002:00002ab0       ??_C@_08HAAIDMLD@makefile?$AA@ 10063ab0     LexOthers.obj
 0002:00002abc       ??_C@_09CHIHPNPL@errorlist?$AA@ 10063abc     LexOthers.obj
 0002:00002ac8       ??_C@_05NIPOACHO@latex?$AA@ 10063ac8     LexOthers.obj
 0002:00002ad0       ??_C@_04MLLLIHIP@null?$AA@ 10063ad0     LexOthers.obj
 0002:00002ae0       ??_C@_06LEMKAMD@remove?$AA@ 10063ae0     LexPascal.obj
 0002:00002ae8       ??_C@_03BDGOHNNK@add?$AA@  10063ae8     LexPascal.obj
 0002:00002aec       ??_C@_09CGKEKDCN@writeonly?$AA@ 10063aec     LexPascal.obj
 0002:00002af8       ??_C@_08JOKHDEJH@readonly?$AA@ 10063af8     LexPascal.obj
 0002:00002b04       ??_C@_0L@FMDKPCDN@implements?$AA@ 10063b04     LexPascal.obj
 0002:00002b10       ??_C@_06LKHJIKAD@stored?$AA@ 10063b10     LexPascal.obj
 0002:00002b18       ??_C@_09PBCOEMJO@nodefault?$AA@ 10063b18     LexPascal.obj
 0002:00002b24       ??_C@_07DLHCIBDH@default?$AA@ 10063b24     LexPascal.obj
 0002:00002b2c       ??_C@_05NGFEDHGN@write?$AA@ 10063b2c     LexPascal.obj
 0002:00002b34       ??_C@_04POLDLDMI@read?$AA@ 10063b34     LexPascal.obj
 0002:00002b3c       ??_C@_04MEMAJGDJ@name?$AA@ 10063b3c     LexPascal.obj
 0002:00002b44       ??_C@_05FKHKFDID@index?$AA@ 10063b44     LexPascal.obj
 0002:00002b4c       ??_C@_07FLMNHPPG@exports?$AA@ 10063b4c     LexPascal.obj
 0002:00002b54       ??_C@_08EMBNBNLN@property?$AA@ 10063b54     LexPascal.obj
 0002:00002b60       ??_C@_03HPAPIFKC@?$CI?$CK$?$AA@ 10063b60     LexPascal.obj
 0002:00002b64       ??_C@_0BI@MCKGKNDI@?$CD$?$CG?8?$CI?$CJ?$CK?$CL?0?9?4?1?3?$DL?$DM?$DN?$DO?$EA?$FL?$FN?$FO?$HL?$HN?$AA@ 10063b64     LexPascal.obj
 0002:00002b7c       ??_C@_0N@INHGOOCE@abcdefABCDEF?$AA@ 10063b7c     LexPascal.obj
 0002:00002b8c       ??_C@_05POOLELBL@?4?9?$CLeE?$AA@ 10063b8c     LexPascal.obj
 0002:00002b94       ??_C@_0CA@CPCIMFMF@lexer?4pascal?4smart?4highlighting?$AA@ 10063b94     LexPascal.obj
 0002:00002bb4       ??_C@_09BNLMCKMB@endregion?$AA@ 10063bb4     LexPascal.obj
 0002:00002bc0       ??_C@_05DIJEMNJL@ifend?$AA@ 10063bc0     LexPascal.obj
 0002:00002bc8       ??_C@_05LFDLBNE@ifopt?$AA@ 10063bc8     LexPascal.obj
 0002:00002bd0       ??_C@_06ENONKJGC@ifndef?$AA@ 10063bd0     LexPascal.obj
 0002:00002bd8       ??_C@_05LOELCHJN@ifdef?$AA@ 10063bd8     LexPascal.obj
 0002:00002be0       ??_C@_08LHJFAFGD@operator?$AA@ 10063be0     LexPascal.obj
 0002:00002bec       ??_C@_03MEPDGFMA@var?$AA@  10063bec     LexPascal.obj
 0002:00002bf0       ??_C@_02HAJCGGNB@of?$AA@   10063bf0     LexPascal.obj
 0002:00002bf4       ??_C@_06IEOJBDIK@object?$AA@ 10063bf4     LexPascal.obj
 0002:00002bfc       ??_C@_03JDGOGJKJ@try?$AA@  10063bfc     LexPascal.obj
 0002:00002c00       ??_C@_06KKGOIHDP@record?$AA@ 10063c00     LexPascal.obj
 0002:00002c08       ??_C@_06FKOPGLBL@pascal?$AA@ 10063c08     LexPascal.obj
 0002:00002c18       ??_C@_0BC@DKFNGAKG@CALLBACK?5FUNCTION?$AA@ 10063c18     LexPB.obj
 0002:00002c2c       ??_C@_08KPDMMFC@FUNCTION?$AA@ 10063c2c     LexPB.obj
 0002:00002c38       ??_C@_0L@DFEADPIA@STATIC?5SUB?$AA@ 10063c38     LexPB.obj
 0002:00002c44       ??_C@_0BA@FNINNEFB@STATIC?5FUNCTION?$AA@ 10063c44     LexPB.obj
 0002:00002c54       ??_C@_0L@KMLKLFMJ@powerbasic?$AA@ 10063c54     LexPB.obj
 0002:00002c68       ??_C@_02GNMIELFD@?$DN?$DO?$AA@ 10063c68     LexPerl.obj
 0002:00002c6c       ??_C@_02HBOOOICD@?9?$DO?$AA@ 10063c6c     LexPerl.obj
 0002:00002c70       ??_C@_02MOLJINC@?3?3?$AA@  10063c70     LexPerl.obj
 0002:00002c74       ??_C@_03JDAAKEE@?$DM?$DN?$DO?$AA@ 10063c74     LexPerl.obj
 0002:00002c78       ??_C@_07KNEGBPNO@package?$AA@ 10063c78     LexPerl.obj
 0002:00002c80       ??_C@_07DFKFMCCJ@__END__?$AA@ 10063c80     LexPerl.obj
 0002:00002c88       ??_C@_05BLOHHOCG@?$DNhead?$AA@ 10063c88     LexPerl.obj
 0002:00002c90       ??_C@_04FAJGDKHB@?$DNcut?$AA@ 10063c90     LexPerl.obj
 0002:00002c98       ??_C@_0BC@IONCHNAC@fold?4perl?4package?$AA@ 10063c98     LexPerl.obj
 0002:00002cac       ??_C@_0O@NEKEMKPC@fold?4perl?4pod?$AA@ 10063cac     LexPerl.obj
 0002:00002cbc       ??_C@_01LFCBOECM@?4?$AA@   10063cbc     LexPerl.obj
 0002:00002cc0       ??_C@_06DLEPGFEF@format?$AA@ 10063cc0     LexPerl.obj
 0002:00002cc8       ??_C@_08PIKDHCHK@__DATA__?$AA@ 10063cc8     LexPerl.obj
 0002:00002cd4       ??_C@_02NLGAHNO@_?$DN?$AA@ 10063cd4     LexPerl.obj
 0002:00002cd8       ??_C@_09PINEGEJB@?2?$FL$?$EA?$CF?$CG?$CK?$FN?$DL?$AA@ 10063cd8     LexPerl.obj
 0002:00002ce4       ??_C@_03BDMHKBKG@?$DN$?$EA?$AA@ 10063ce4     LexPerl.obj
 0002:00002ce8       ??_C@_07OIEPGPEF@?$CD$_?$CB?$FO?$CL?9?$AA@ 10063ce8     LexPerl.obj
 0002:00002cf0       ??_C@_05HMBIEMBK@?$CD$_?$CL?9?$AA@ 10063cf0     LexPerl.obj
 0002:00002cf8       ??_C@_04CNMJLOLH@?$CD$_?8?$AA@ 10063cf8     LexPerl.obj
 0002:00002d00       ??_C@_04IPHPEMDM@?$CK?1?$DM?$CF?$AA@ 10063d00     LexPerl.obj
 0002:00002d08       ??_C@_04IKABCEKB@qrwx?$AA@ 10063d08     LexPerl.obj
 0002:00002d10       ??_C@_0BG@DADNGEBA@?$FO?$CG?2?$CI?$CJ?9?$CL?$DN?$HM?$HL?$HN?$FL?$FN?3?$DL?$DO?0?$DP?$CB?4?$HO?$AA@ 10063d10     LexPerl.obj
 0002:00002d28       ??_C@_0BM@EMMJFDPD@rwxoRWXOezsfdlpSbctugkTBMAC?$AA@ 10063d28     LexPerl.obj
 0002:00002d44       ??_C@_0BF@IJBGMJOL@elsif?5if?5split?5while?$AA@ 10063d44     LexPerl.obj
 0002:00002d5c       ??_C@_04FCMKHHIJ@perl?$AA@ 10063d5c     LexPerl.obj
 0002:00002d6c       ??_C@_04KGMKBADJ@PL?1M?$AA@ 10063d6c     LexPLM.obj
 0002:00002d74       ??_C@_0P@IDBBNMLG@User?5defined?53?$AA@ 10063d74     LexPOV.obj
 0002:00002d84       ??_C@_0P@JKAKONPH@User?5defined?52?$AA@ 10063d84     LexPOV.obj
 0002:00002d94       ??_C@_0P@LBCHLODE@User?5defined?51?$AA@ 10063d94     LexPOV.obj
 0002:00002da4       ??_C@_0BF@OKDCECAJ@Predefined?5Functions?$AA@ 10063da4     LexPOV.obj
 0002:00002dbc       ??_C@_0BH@OOGJPKIN@Predefined?5Identifiers?$AA@ 10063dbc     LexPOV.obj
 0002:00002dd4       ??_C@_0BK@MFEHNNMG@Types?5?$CG?5Modifiers?5?$CG?5Items?$AA@ 10063dd4     LexPOV.obj
 0002:00002df0       ??_C@_0BL@FAMKEMOD@Objects?5?$CG?5CSG?5?$CG?5Appearance?$AA@ 10063df0     LexPOV.obj
 0002:00002e0c       ??_C@_0BE@IKCICKIO@Language?5directives?$AA@ 10063e0c     LexPOV.obj
 0002:00002e44       ??_C@_0M@MGIJBNCD@abfnrtuv0?8?$CC?$AA@ 10063e44     LexPOV.obj
 0002:00002e50       ??_C@_0P@GKILKIPN@fold?4directive?$AA@ 10063e50     LexPOV.obj
 0002:00002e60       ??_C@_03IPGKNCBC@pov?$AA@  10063e60     LexPOV.obj
 0002:00002e64       ??_C@_0P@CKCCDLKN@Keyword?5list?54?$AA@ 10063e64     LexPowerPro.obj
 0002:00002e74       ??_C@_0P@GFGDKNGK@Keyword?5list?53?$AA@ 10063e74     LexPowerPro.obj
 0002:00002e84       ??_C@_0P@HMHIJMCL@Keyword?5list?52?$AA@ 10063e84     LexPowerPro.obj
 0002:00002e94       ??_C@_0P@FHFFMPOI@Keyword?5list?51?$AA@ 10063e94     LexPowerPro.obj
 0002:00002eb8       ??_C@_02BEDCMDKE@?$DL?$DL?$AA@ 10063eb8     LexPowerPro.obj
 0002:00002ebc       ??_C@_03KHNPKIFL@?$DL?$DL?$CL?$AA@ 10063ebc     LexPowerPro.obj
 0002:00002ec0       ??_C@_02JHCHAAGF@_?$EA?$AA@ 10063ec0     LexPowerPro.obj
 0002:00002ec4       ??_C@_08MMFFDCLK@powerpro?$AA@ 10063ec4     LexPowerPro.obj
 0002:00002ed0       ??_C@_07ILNBOIJH@Aliases?$AA@ 10063ed0     LexPowerShell.obj
 0002:00002ed8       ??_C@_07EDBLPCDF@Cmdlets?$AA@ 10063ed8     LexPowerShell.obj
 0002:00002ef0       ??_C@_0L@JNABNAOB@powershell?$AA@ 10063ef0     LexPowerShell.obj
 0002:00002f14       ??_C@_08LCGAPFCF@progress?$AA@ 10063f14     LexProgress.obj
 0002:00002f20       ??_C@_0BH@DKLCBMDC@User?9defined?5operators?$AA@ 10063f20     LexPS.obj
 0002:00002f38       ??_C@_0BH@EKMAKBGD@RIP?9specific?5operators?$AA@ 10063f38     LexPS.obj
 0002:00002f50       ??_C@_0BF@LNIKOAHA@PS?5Level?53?5operators?$AA@ 10063f50     LexPS.obj
 0002:00002f68       ??_C@_0BF@CGCPKMBP@PS?5Level?52?5operators?$AA@ 10063f68     LexPS.obj
 0002:00002f80       ??_C@_0BF@FBLBHOOP@PS?5Level?51?5operators?$AA@ 10063f80     LexPS.obj
 0002:00002fb0       ??_C@_08LDOMBJAK@ps?4level?$AA@ 10063fb0     LexPS.obj
 0002:00002fbc       ??_C@_0M@MCPIBKAM@ps?4tokenize?$AA@ 10063fbc     LexPS.obj
 0002:00002fc8       ??_C@_02FAFNGEII@ps?$AA@   10063fc8     LexPS.obj
 0002:00002fcc       ??_C@_0BI@GGICGCL@Highlighted?5identifiers?$AA@ 10063fcc     LexPython.obj
 0002:00002ff0       ??_C@_03EJJFFGE@?8?8?8?$AA@ 10063ff0     LexPython.obj
 0002:00002ff4       ??_C@_07OIEMJFCK@cimport?$AA@ 10063ff4     LexPython.obj
 0002:00002ffc       ??_C@_04COLAKAMB@cdef?$AA@ 10063ffc     LexPython.obj
 0002:00003004       ??_C@_0BH@OOHOOGDG@lexer?4python?4strings?4b?$AA@ 10064004     LexPython.obj
 0002:0000301c       ??_C@_0BH@OLPNGCKA@lexer?4python?4strings?4u?$AA@ 1006401c     LexPython.obj
 0002:00003034       ??_C@_0BN@BKBNFPCN@lexer?4python?4literals?4binary?$AA@ 10064034     LexPython.obj
 0002:00003054       ??_C@_0BH@CGKAPABL@tab?4timmy?4whinge?4level?$AA@ 10064054     LexPython.obj
 0002:0000306c       ??_C@_0BD@PAMCMDCK@fold?4quotes?4python?$AA@ 1006406c     LexPython.obj
 0002:00003080       ??_C@_0BE@OMDKLJHH@fold?4comment?4python?$AA@ 10064080     LexPython.obj
 0002:00003094       ??_C@_06OIODPPHE@python?$AA@ 10064094     LexPython.obj
 0002:0000309c       ??_C@_0BI@GGNHPNJK@Other?5Package?5Functions?$AA@ 1006409c     LexR.obj
 0002:000030b4       ??_C@_0CA@FFOEFMKA@Base?5?1?5Default?5package?5function?$AA@ 100640b4     LexR.obj
 0002:000030d4       ??_C@_0BC@LPBBKMFI@Language?5Keywords?$AA@ 100640d4     LexR.obj
 0002:00003100       ??_C@_01KDCPPGHE@r?$AA@    10064100     LexR.obj
 0002:0000310c       ??_C@_05ECOJJNJF@rebol?$AA@ 1006410c     LexRebol.obj
 0002:0000311c       ??_C@_02FODMLBIE@or?$AA@   1006411c     LexRuby.obj
 0002:00003120       ??_C@_03NJKJADM@not?$AA@   10064120     LexRuby.obj
 0002:00003124       ??_C@_06OMKCNAGG@unless?$AA@ 10064124     LexRuby.obj
 0002:0000312c       ??_C@_06LNOFJDNM@return?$AA@ 1006412c     LexRuby.obj
 0002:00003134       ??_C@_05EHONGJAF@elsif?$AA@ 10064134     LexRuby.obj
 0002:0000313c       ??_C@_05ELPHFHOI@break?$AA@ 1006413c     LexRuby.obj
 0002:00003144       ??_C@_03BOPJPIAM@and?$AA@  10064144     LexRuby.obj
 0002:00003148       ??_C@_05NKHOCLEE@alias?$AA@ 10064148     LexRuby.obj
 0002:00003150       ??_C@_05PKCPKOLM@undef?$AA@ 10064150     LexRuby.obj
 0002:00003158       ??_C@_05FBHFNIBD@litnu?$AA@ 10064158     LexRuby.obj
 0002:00003160       ??_C@_05CKFCJHNJ@elihw?$AA@ 10064160     LexRuby.obj
 0002:00003168       ??_C@_03FALNBIEN@?$CJ?$HN?$FN?$AA@ 10064168     LexRuby.obj
 0002:0000316c       ??_C@_03MHEOIBFL@?$FL?$HL?$CI?$AA@ 1006416c     LexRuby.obj
 0002:00003170       ??_C@_04CPEMDLGN@?$DNend?$AA@ 10064170     LexRuby.obj
 0002:00003178       ??_C@_0L@LIDOMKLD@?2ntrfvaebs?$AA@ 10064178     LexRuby.obj
 0002:00003184       ??_C@_05IJDJACGD@print?$AA@ 10064184     LexRuby.obj
 0002:0000318c       ??_C@_04DNCNJDPH@?5?7?6?$AN?$AA@ 1006418c     LexRuby.obj
 0002:00003194       ??_C@_04DDKIJBJ@?$CJ?$HN?$FN?4?$AA@ 10064194     LexRuby.obj
 0002:0000319c       ??_C@_0BA@CKJDDCBP@?$FL?$CK?$CB?$HO?$CL?9?$CK?1?$CF?$DN?$DM?$DO?$CG?$FO?$HM?$AA@ 1006419c     LexRuby.obj
 0002:000031ac       ??_C@_05LFEMNBE@?$CC?8?$GA_?9?$AA@ 100641ac     LexRuby.obj
 0002:000031b4       ??_C@_06BELBMAAN@qQrwWx?$AA@ 100641b4     LexRuby.obj
 0002:000031bc       ??_C@_04FDIADGBC@ruby?$AA@ 100641bc     LexRuby.obj
 0002:000031c4       ??_C@_08ENPMFDDL@scriptol?$AA@ 100641c4     LexScriptol.obj
 0002:000031d0       ??_C@_0BC@CPNJMLFP@Special?5selectors?$AA@ 100641d0     LexSmalltalk.obj
 0002:000031ec       ??_C@_03ILAMHENH@nil?$AA@  100641ec     LexSmalltalk.obj
 0002:000031f0       ??_C@_05MKJDPMKP@super?$AA@ 100641f0     LexSmalltalk.obj
 0002:000031f8       ??_C@_04PJDNGLKJ@self?$AA@ 100641f8     LexSmalltalk.obj
 0002:00003200       ??_C@_09MLEKNADF@smalltalk?$AA@ 10064200     LexSmalltalk.obj
 0002:0000321c       ??_C@_09EONLIBPG@?$CJ?$FN?$HN?$DL?0?8?$CC?$GA?$CD?$AA@ 1006421c     LexSML.obj
 0002:00003228       ??_C@_0BF@OIPKJEOK@?$CB?$HO?$DN?$DM?$DO?$EA?$FO?$CL?9?$CK?1?$CI?$CJ?$FL?$FN?$DL?0?3?4?$CD?$AA@ 10064228     LexSML.obj
 0002:00003240       ??_C@_02CIDOMIFJ@xX?$AA@   10064240     LexSML.obj
 0002:00003244       ??_C@_03CDINJODF@SML?$AA@  10064244     LexSML.obj
 0002:00003248       ??_C@_08CHMPKCOC@Constant?$AA@ 10064248     LexSorcus.obj
 0002:00003254       ??_C@_09HPDNJEFH@Parameter?$AA@ 10064254     LexSorcus.obj
 0002:00003260       ??_C@_07FFLLKOAD@Command?$AA@ 10064260     LexSorcus.obj
 0002:00003278       ??_C@_07FNPBFPCI@sorcins?$AA@ 10064278     LexSorcus.obj
 0002:00003280       ??_C@_0CG@LOCGBAFB@User?5defined?5keywords?5and?5identi@ 10064280     LexSpecman.obj
 0002:000032a8       ??_C@_0CC@HHAACMEP@Sequence?5keywords?5and?5identifier@ 100642a8     LexSpecman.obj
 0002:000032e4       ??_C@_03DAOJJHFA@?9?9?$CB?$AA@ 100642e4     LexSpecman.obj
 0002:000032e8       ??_C@_07KJOGDNFK@specman?$AA@ 100642e8     LexSpecman.obj
 0002:00003300       ??_C@_05COGMJDOO@spice?$AA@ 10064300     LexSpice.obj
 0002:00003308       ??_C@_0BA@OJPLKFMI@User?5Keywords?54?$AA@ 10064308     LexSQL.obj
 0002:00003318       ??_C@_08PBPCFLBJ@SQL?$CKPlus?$AA@ 10064318     LexSQL.obj
 0002:00003324       ??_C@_05MGJNJIPA@PLDoc?$AA@ 10064324     LexSQL.obj
 0002:00003350       ??_C@_03JEELCJ@pro?$AA@    10064350     LexSQL.obj
 0002:00003354       ??_C@_0BP@NAECIDKH@lexer?4sql?4backticks?4identifier?$AA@ 10064354     LexSQL.obj
 0002:00003374       ??_C@_0BG@PGLAJBNK@sql?4backslash?4escapes?$AA@ 10064374     LexSQL.obj
 0002:0000338c       ??_C@_06OGCODMJI@exists?$AA@ 1006438c     LexSQL.obj
 0002:00003394       ??_C@_03DLEKAJFN@sql?$AA@  10064394     LexSQL.obj
 0002:00003398       ??_C@_06IIEFNIBO@Labels?$AA@ 10064398     LexTACL.obj
 0002:000033a0       ??_C@_08GABNKLKK@Builtins?$AA@ 100643a0     LexTACL.obj
 0002:000033bc       ??_C@_08GPMGFICF@?$DPsection?$AA@ 100643bc     LexTACL.obj
 0002:000033c8       ??_C@_04PJPGGNCB@TACL?$AA@ 100643c8     LexTACL.obj
 0002:000033d0       ??_C@_0P@CPIGMAE@TADS3?5Keywords?$AA@ 100643d0     LexTADS3.obj
 0002:000033f4       ??_C@_02EDKKPMHH@is?$AA@   100643f4     LexTADS3.obj
 0002:000033f8       ??_C@_03KHICJKCI@?4?4?4?$AA@ 100643f8     LexTADS3.obj
 0002:000033fc       ??_C@_05GMEEJMBL@tads3?$AA@ 100643fc     LexTADS3.obj
 0002:00003410       ??_C@_03LHEAFPOI@TAL?$AA@  10064410     LexTAL.obj
 0002:00003414       ??_C@_0M@PLOOBOO@expanduser1?$AA@ 10064414     LexTCL.obj
 0002:00003420       ??_C@_0L@HHDMLLJF@tkCommands?$AA@ 10064420     LexTCL.obj
 0002:0000342c       ??_C@_0O@CLINBMII@iTCL?5Keywords?$AA@ 1006442c     LexTCL.obj
 0002:0000343c       ??_C@_0M@DLOAJPFO@TK?5Keywords?$AA@ 1006443c     LexTCL.obj
 0002:00003448       ??_C@_0N@NHMJFDKE@TCL?5Keywords?$AA@ 10064448     LexTCL.obj
 0002:0000347c       ??_C@_03LJDPEGPK@tcl?$AA@  1006447c     LexTCL.obj
 0002:00003480       ??_C@_0BB@JIGBBICH@ConTeXt?5Romanian?$AA@ 10064480     LexTeX.obj
 0002:00003494       ??_C@_0BA@MGDEEDFA@ConTeXt?5Italian?$AA@ 10064494     LexTeX.obj
 0002:000034a4       ??_C@_0O@PLBLNDCO@ConTeXt?5Czech?$AA@ 100644a4     LexTeX.obj
 0002:000034b4       ??_C@_0P@BMFCMDEG@ConTeXt?5German?$AA@ 100644b4     LexTeX.obj
 0002:000034c4       ??_C@_0BA@MNJEKGBK@ConTeXt?5English?$AA@ 100644c4     LexTeX.obj
 0002:000034d4       ??_C@_0O@IMOLEELN@ConTeXt?5Dutch?$AA@ 100644d4     LexTeX.obj
 0002:000034e4       ??_C@_0BJ@PCEPNNII@TeX?0?5eTeX?0?5pdfTeX?0?5Omega?$AA@ 100644e4     LexTeX.obj
 0002:00003520       ??_C@_0BA@FEILJICG@interface?$DNlatex?$AA@ 10064520     LexTeX.obj
 0002:00003530       ??_C@_0N@EMEIFDEF@interface?$DNro?$AA@ 10064530     LexTeX.obj
 0002:00003540       ??_C@_0N@PFANNEEO@interface?$DNit?$AA@ 10064540     LexTeX.obj
 0002:00003550       ??_C@_0N@GGBJHMBG@interface?$DNcz?$AA@ 10064550     LexTeX.obj
 0002:00003560       ??_C@_0N@KOAMGEAN@interface?$DNde?$AA@ 10064560     LexTeX.obj
 0002:00003570       ??_C@_0N@EMDKNHPB@interface?$DNen?$AA@ 10064570     LexTeX.obj
 0002:00003580       ??_C@_0N@HCFJFKJC@interface?$DNnl?$AA@ 10064580     LexTeX.obj
 0002:00003590       ??_C@_0O@MJOANELI@interface?$DNtex?$AA@ 10064590     LexTeX.obj
 0002:000035a0       ??_C@_0O@IPFIJPMP@interface?$DNall?$AA@ 100645a0     LexTeX.obj
 0002:000035b0       ??_C@_05KPFIGMOA@newif?$AA@ 100645b0     LexTeX.obj
 0002:000035b8       ??_C@_0BM@KDDDFNGN@lexer?4tex?4interface?4default?$AA@ 100645b8     LexTeX.obj
 0002:000035d4       ??_C@_0BC@MPCGNFDE@lexer?4tex?4auto?4if?$AA@ 100645d4     LexTeX.obj
 0002:000035e8       ??_C@_0BH@GFIJPLBM@lexer?4tex?4use?4keywords?$AA@ 100645e8     LexTeX.obj
 0002:00003600       ??_C@_0BK@OBNBEMAN@lexer?4tex?4comment?4process?$AA@ 10064600     LexTeX.obj
 0002:0000361c       ??_C@_04MOIHHPNJ@Stop?$AA@ 1006461c     LexTeX.obj
 0002:00003624       ??_C@_04PEGFANN@stop?$AA@  10064624     LexTeX.obj
 0002:0000362c       ??_C@_07LFLAEFDO@protect?$AA@ 1006462c     LexTeX.obj
 0002:00003634       ??_C@_09JOPAJCIH@maketitle?$AA@ 10064634     LexTeX.obj
 0002:00003640       ??_C@_08JFJMDPCN@FoldStop?$AA@ 10064640     LexTeX.obj
 0002:0000364c       ??_C@_0O@KODJEPFA@documentclass?$AA@ 1006464c     LexTeX.obj
 0002:0000365c       ??_C@_05FHMJPCKA@Start?$AA@ 1006465c     LexTeX.obj
 0002:00003664       ??_C@_05PHLGJONK@title?$AA@ 10064664     LexTeX.obj
 0002:0000366c       ??_C@_09LHNJOGML@unprotect?$AA@ 1006466c     LexTeX.obj
 0002:00003678       ??_C@_08IMFJLGFD@abstract?$AA@ 10064678     LexTeX.obj
 0002:00003684       ??_C@_09ONECNPOF@FoldStart?$AA@ 10064684     LexTeX.obj
 0002:00003690       ??_C@_05IODDPPOI@slide?$AA@ 10064690     LexTeX.obj
 0002:00003698       ??_C@_08OPBNIBHL@overlays?$AA@ 10064698     LexTeX.obj
 0002:000036a4       ??_C@_08LDGCFDHG@foilhead?$AA@ 100646a4     LexTeX.obj
 0002:000036b0       ??_C@_05MIJNFGED@frame?$AA@ 100646b0     LexTeX.obj
 0002:000036b8       ??_C@_06OOIMCDNP@framed?$AA@ 100646b8     LexTeX.obj
 0002:000036c0       ??_C@_04DJIAAGFC@xdef?$AA@ 100646c0     LexTeX.obj
 0002:000036c8       ??_C@_04KBPAFFGB@edef?$AA@ 100646c8     LexTeX.obj
 0002:000036d0       ??_C@_04NLDAAGAB@gdef?$AA@ 100646d0     LexTeX.obj
 0002:000036d8       ??_C@_0L@JGEGPLOH@subsubject?$AA@ 100646d8     LexTeX.obj
 0002:000036e4       ??_C@_07JNNGEGGO@subject?$AA@ 100646e4     LexTeX.obj
 0002:000036ec       ??_C@_05KHAFJJEA@topic?$AA@ 100646ec     LexTeX.obj
 0002:000036f4       ??_C@_05KAKJJMHG@Topic?$AA@ 100646f4     LexTeX.obj
 0002:000036fc       ??_C@_08HIEJALMN@appendix?$AA@ 100646fc     LexTeX.obj
 0002:00003708       ??_C@_09OFMBCCKG@CJKfamily?$AA@ 10064708     LexTeX.obj
 0002:00003714       ??_C@_0O@FJHFECNN@subsubsection?$AA@ 10064714     LexTeX.obj
 0002:00003724       ??_C@_0L@BGPFCBGI@subsection?$AA@ 10064724     LexTeX.obj
 0002:00003730       ??_C@_07PBNCJMAI@chapter?$AA@ 10064730     LexTeX.obj
 0002:00003738       ??_C@_04FPLDHIIH@part?$AA@ 10064738     LexTeX.obj
 0002:00003740       ??_C@_03JDBMONBN@tex?$AA@  10064740     LexTeX.obj
 0002:00003758       ??_C@_02HAJDLCK@vb?$AA@    10064758     LexVB.obj
 0002:0000375c       ??_C@_08IBPPJOAO@vbscript?$AA@ 1006475c     LexVB.obj
 0002:00003768       ??_C@_0CD@CNHCALCO@User?5defined?5tasks?5and?5identifie@ 10064768     LexVerilog.obj
 0002:0000378c       ??_C@_0N@PNLKBFDA@System?5Tasks?$AA@ 1006478c     LexVerilog.obj
 0002:000037b4       ??_C@_0N@OCJBFJPG@endprimitive?$AA@ 100647b4     LexVerilog.obj
 0002:000037c4       ??_C@_0L@MHMPIIIK@endspecify?$AA@ 100647c4     LexVerilog.obj
 0002:000037d0       ??_C@_08EJBDHGMB@endtable?$AA@ 100647d0     LexVerilog.obj
 0002:000037dc       ??_C@_0M@IGDGKMPI@endgenerate?$AA@ 100647dc     LexVerilog.obj
 0002:000037e8       ??_C@_07BFEMEGLB@endtask?$AA@ 100647e8     LexVerilog.obj
 0002:000037f0       ??_C@_04DFGCDGNN@join?$AA@ 100647f0     LexVerilog.obj
 0002:000037f8       ??_C@_09DMNNEEOD@primitive?$AA@ 100647f8     LexVerilog.obj
 0002:00003804       ??_C@_07CGEIDIBO@specify?$AA@ 10064804     LexVerilog.obj
 0002:0000380c       ??_C@_08HBLFHMBF@generate?$AA@ 1006480c     LexVerilog.obj
 0002:00003818       ??_C@_04GGKLLKOO@task?$AA@ 10064818     LexVerilog.obj
 0002:00003820       ??_C@_05LCLENNFI@table?$AA@ 10064820     LexVerilog.obj
 0002:00003828       ??_C@_04JNJGGDAI@fork?$AA@ 10064828     LexVerilog.obj
 0002:00003830       ??_C@_05IGEJOKJA@casez?$AA@ 10064830     LexVerilog.obj
 0002:00003838       ??_C@_05LEHPIIBC@casex?$AA@ 10064838     LexVerilog.obj
 0002:00003840       ??_C@_0BD@LGDGFEO@fold?4verilog?4flags?$AA@ 10064840     LexVerilog.obj
 0002:00003854       ??_C@_07ODGDFLPD@verilog?$AA@ 10064854     LexVerilog.obj
 0002:0000385c       ??_C@_0L@DHMAJDHJ@User?5Words?$AA@ 1006485c     LexVHDL.obj
 0002:00003868       ??_C@_0P@IPIAEPIH@Standard?5Types?$AA@ 10064868     LexVHDL.obj
 0002:00003878       ??_C@_0BC@BGHCGJHH@Standard?5Packages?$AA@ 10064878     LexVHDL.obj
 0002:0000388c       ??_C@_0BD@COHLPIKJ@Standard?5Functions?$AA@ 1006488c     LexVHDL.obj
 0002:000038c0       ??_C@_07DEBHDLBL@process?$AA@ 100648c0     LexVHDL.obj
 0002:000038c8       ??_C@_06GOJKNBFM@entity?$AA@ 100648c8     LexVHDL.obj
 0002:000038d0       ??_C@_09NILLCKIE@component?$AA@ 100648d0     LexVHDL.obj
 0002:000038dc       ??_C@_0N@HAOBJCCO@architecture?$AA@ 100648dc     LexVHDL.obj
 0002:000038ec       ??_C@_01ICJEACDI@?$DL?$AA@ 100648ec     LexVHDL.obj
 0002:000038f0       ??_C@_0BD@JGMPJOEH@fold?4at?4Parenthese?$AA@ 100648f0     LexVHDL.obj
 0002:00003904       ??_C@_0O@BKFCNILG@fold?4at?4Begin?$AA@ 10064904     LexVHDL.obj
 0002:00003918       ??_C@_0HK@NDENMDMK@architecture?5begin?5case?5componen@ 10064918     LexVHDL.obj
 0002:00003994       ??_C@_04DHELIFDG@vhdl?$AA@ 10064994     LexVHDL.obj
 0002:000039a4       ??_C@_0BC@MKEHOKCB@fold?4comment?4yaml?$AA@ 100649a4     LexYAML.obj
 0002:000039b8       ??_C@_04MHMCGGOC@yaml?$AA@ 100649b8     LexYAML.obj
 0002:000039d4       ??_7Surface@@6B@           100649d4     PlatWin.obj
 0002:00003a68       ??_7DynamicLibrary@@6B@    10064a68     PlatWin.obj
 0002:00003a78       ??_7Font@@6B@              10064a78     PlatWin.obj
 0002:00003a8c       ??_7SurfaceImpl@@6B@       10064a8c     PlatWin.obj
 0002:00003b1c       ??_C@_08MGLFJAGK@SciLexer?$AA@ 10064b1c     PlatWin.obj
 0002:00003b28       ??_C@_09HHNPOBHJ@Scintilla?$AA@ 10064b28     PlatWin.obj
 0002:00003b3c       ??_7ListBox@@6B@           10064b3c     PlatWin.obj
 0002:00003b88       ??_C@_07EHHHOIHI@Verdana?$AA@ 10064b88     PlatWin.obj
 0002:00003b94       ??_7FontCached@@6B@        10064b94     PlatWin.obj
 0002:00003ba4       ??_7ListBoxX@@6B@          10064ba4     PlatWin.obj
 0002:00003bf0       ??_C@_07LHBBOFFP@listbox?$AA@ 10064bf0     PlatWin.obj
 0002:00003bfc       ??_7DynamicLibraryImpl@@6B@ 10064bfc     PlatWin.obj
 0002:00003c08       ??_C@_0L@MHHLCNNL@AlphaBlend?$AA@ 10064c08     PlatWin.obj
 0002:00003c14       ??_C@_07NGDABAHA@Msimg32?$AA@ 10064c14     PlatWin.obj
 0002:00003c20       ??_7LineLayout@@6B@        10064c20     PositionCache.obj
 0002:00003c28       ??_7LineLayoutCache@@6B@   10064c28     PositionCache.obj
 0002:00003c2c       ??_C@_01PKGAHCOL@?$CJ?$AA@ 10064c2c     PropSet.obj
 0002:00003c30       ??_C@_02GCKHGGHL@$?$CI?$AA@ 10064c30     PropSet.obj
 0002:00003c3c       ??_C@_0BP@PJIIOEJI@No?5previous?5regular?5expression?$AA@ 10064c3c     RESearch.obj
 0002:00003c5c       ??_C@_0BH@PBJHAJHP@Null?5pattern?5inside?5?$CI?$CJ?$AA@ 10064c5c     RESearch.obj
 0002:00003c74       ??_C@_0BA@JAHIKIMJ@Illegal?5closure?$AA@ 10064c74     RESearch.obj
 0002:00003c84       ??_C@_0O@GCBPMNL@Empty?5closure?$AA@ 10064c84     RESearch.obj
 0002:00003c94       ??_C@_09OAPOENFO@Missing?5?$FN?$AA@ 10064c94     RESearch.obj
 0002:00003ca0       ??_C@_0N@HOADKJBO@Unmatched?5?2?$CJ?$AA@ 10064ca0     RESearch.obj
 0002:00003cb0       ??_C@_0BJ@EEHFEFFP@Null?5pattern?5inside?5?2?$CI?2?$CJ?$AA@ 10064cb0     RESearch.obj
 0002:00003ccc       ??_C@_0BE@PMNAHDDK@Too?5many?5?2?$CI?2?$CJ?5pairs?$AA@ 10064ccc     RESearch.obj
 0002:00003ce0       ??_C@_0BH@IEGHEGDJ@Undetermined?5reference?$AA@ 10064ce0     RESearch.obj
 0002:00003cf8       ??_C@_0BD@ENBHLCOG@Cyclical?5reference?$AA@ 10064cf8     RESearch.obj
 0002:00003d0c       ??_C@_0BJ@JOINABAB@Null?5pattern?5inside?5?2?$DM?2?$DO?$AA@ 10064d0c     RESearch.obj
 0002:00003d28       ??_C@_0BB@ILDLNKCD@Pattern?5too?5long?$AA@ 10064d28     RESearch.obj
 0002:00003d3c       ??_C@_0N@GHBIJIFP@Unmatched?5?2?$CI?$AA@ 10064d3c     RESearch.obj
 0002:00003d4c       ??_C@_0M@LLDEIHJD@Unmatched?5?$CI?$AA@ 10064d4c     RESearch.obj
 0002:00003d58       ??_C@_0M@KCCPLGNC@Unmatched?5?$CJ?$AA@ 10064d58     RESearch.obj
 0002:00003d64       ??_C@_0BC@MEOMEKMJ@Too?5many?5?$CI?$CJ?5pairs?$AA@ 10064d64     RESearch.obj
 0002:00003d7c       ??_7DocumentAccessor@@6B@  10064d7c     ScintillaBase.obj
 0002:00003ddc       ??_7ScintillaBase@@6B@     10064ddc     ScintillaBase.obj
 0002:00003e94       ??_C@_0L@CALHPJHB@Select?5All?$AA@ 10064e94     ScintillaBase.obj
 0002:00003ea0       ??_C@_06JBKGCNBB@Delete?$AA@ 10064ea0     ScintillaBase.obj
 0002:00003ea8       ??_C@_05NEBJFIEK@Paste?$AA@ 10064ea8     ScintillaBase.obj
 0002:00003eb0       ??_C@_04OPMHGHMB@Copy?$AA@ 10064eb0     ScintillaBase.obj
 0002:00003eb8       ??_C@_03EOHDMBHJ@Cut?$AA@  10064eb8     ScintillaBase.obj
 0002:00003ebc       ??_C@_04NKENIHOM@Redo?$AA@ 10064ebc     ScintillaBase.obj
 0002:00003ec4       ??_C@_04LPGMNMPN@Undo?$AA@ 10064ec4     ScintillaBase.obj
 0002:00003ecc       ??_C@_0P@GHFPNOJB@bad?5allocation?$AA@ 10064ecc     ScintillaWin.obj
 0002:00003ef4       ??_7ScintillaWin@@6B@      10064ef4     ScintillaWin.obj
 0002:00003fb4       ??_C@_0BA@GGJDECLC@MSDEVLineSelect?$AA@ 10064fb4     ScintillaWin.obj
 0002:00003fc4       ??_C@_0BC@HHCLHOOE@MSDEVColumnSelect?$AA@ 10064fc4     ScintillaWin.obj
 0002:00003fd8       ??_C@_08FFGODKIL@ACallTip?$AA@ 10064fd8     ScintillaWin.obj
 0002:00003fe4       ??_C@_1BE@FFNKBBML@?$AAS?$AAc?$AAi?$AAn?$AAt?$AAi?$AAl?$AAl?$AAa?$AA?$AA@ 10064fe4     ScintillaWin.obj
 0002:00003ff8       ??_C@_09HHKJMCAF@?1?$CK?5XPM?5?$CK?1?$AA@ 10064ff8     XPM.obj
 0002:00004004       ??_C@_04PPOMGONB@?1?$CK?5X?$AA@ 10065004     XPM.obj
 0002:0000400c       _IID_IDataObject           1006500c     uuid:objidl_i.obj
 0002:0000401c       _IID_IEnumFORMATETC        1006501c     uuid:objidl_i.obj
 0002:0000402c       _IID_IDropTarget           1006502c     uuid:oleidl_i.obj
 0002:0000403c       _IID_IDropSource           1006503c     uuid:oleidl_i.obj
 0002:0000404c       _IID_IUnknown              1006504c     uuid:unknwn_i.obj
 0002:00004060       ??_7type_info@@6B@         10065060     LIBCMT:typinfo.obj
 0002:00004068       ??_7bad_alloc@std@@6B@     10065068     LIBCMT:new.obj
 0002:00004070       __FPinit                   10065070     LIBCMT:fpinit.obj
 0002:00004074       __FPmtinit                 10065074     LIBCMT:fpinit.obj
 0002:00004078       __FPmtterm                 10065078     LIBCMT:fpinit.obj
 0002:0000407c       __pDefaultRawDllMain       1006507c     LIBCMT:dllcrt0.obj
 0002:0000407c       __pRawDllMain              1006507c     LIBCMT:dllcrt0.obj
 0002:00004088       __pDestructExceptionObject 10065088     LIBCMT:frame.obj
 0002:00004090       ??_7bad_exception@std@@6B@ 10065090     LIBCMT:frame.obj
 0002:00004098       ??_C@_0O@DPKOEFFH@bad?5exception?$AA@ 10065098     LIBCMT:frame.obj
 0002:000040a8       ??_C@_07EPKMNAGK@?4mixcrt?$AA@ 100650a8     LIBCMT:tidtable.obj
 0002:000040b0       ??_C@_0O@NLDKAIKN@EncodePointer?$AA@ 100650b0     LIBCMT:tidtable.obj
 0002:000040c0       ??_C@_0N@NHGLKGEC@KERNEL32?4DLL?$AA@ 100650c0     LIBCMT:tidtable.obj
 0002:000040d0       ??_C@_0O@KBPMFGHI@DecodePointer?$AA@ 100650d0     LIBCMT:tidtable.obj
 0002:000040e0       ??_C@_07PEJMOBNF@FlsFree?$AA@ 100650e0     LIBCMT:tidtable.obj
 0002:000040e8       ??_C@_0M@JCPCPOEF@FlsSetValue?$AA@ 100650e8     LIBCMT:tidtable.obj
 0002:000040f4       ??_C@_0M@GDNOONDI@FlsGetValue?$AA@ 100650f4     LIBCMT:tidtable.obj
 0002:00004100       ??_C@_08KNHFBNJ@FlsAlloc?$AA@ 10065100     LIBCMT:tidtable.obj
 0002:00004110       ??_7exception@std@@6B@     10065110     LIBCMT:stdexcpt.obj
 0002:00004118       ??_C@_0BC@EOODALEL@Unknown?5exception?$AA@ 10065118     LIBCMT:stdexcpt.obj
 0002:000041d0       ??_C@_01NEMOKFLO@?$DN?$AA@ 100651d0     LIBCMT:setlocal.obj
 0002:000041d4       ??_C@_0P@GGKDKEEG@runtime?5error?5?$AA@ 100651d4     LIBCMT:crt0msg.obj
 0002:000041e4       ??_C@_0O@MJNIPGOH@TLOSS?5error?$AN?6?$AA@ 100651e4     LIBCMT:crt0msg.obj
 0002:000041f4       ??_C@_0N@BONNPDHF@SING?5error?$AN?6?$AA@ 100651f4     LIBCMT:crt0msg.obj
 0002:00004204       ??_C@_0P@MBDAJNE@DOMAIN?5error?$AN?6?$AA@ 10065204     LIBCMT:crt0msg.obj
 0002:00004218       ??_C@_0JL@DFDOOABL@R6034?$AN?6An?5application?5has?5made?5a@ 10065218     LIBCMT:crt0msg.obj
 0002:000042b8       ??_C@_0PH@EPAFIJ@R6033?$AN?6?9?5Attempt?5to?5use?5MSIL?5cod@ 100652b8     LIBCMT:crt0msg.obj
 0002:000043b0       ??_C@_0DD@BKEEABMM@R6032?$AN?6?9?5not?5enough?5space?5for?5lo@ 100653b0     LIBCMT:crt0msg.obj
 0002:000043e8       ??_C@_0GD@OFKILIED@R6031?$AN?6?9?5Attempt?5to?5initialize?5t@ 100653e8     LIBCMT:crt0msg.obj
 0002:0000444c       ??_C@_0BP@LPMHJOKI@R6030?$AN?6?9?5CRT?5not?5initialized?$AN?6?$AA@ 1006544c     LIBCMT:crt0msg.obj
 0002:0000446c       ??_C@_0CF@KJDAIALP@R6028?$AN?6?9?5unable?5to?5initialize?5he@ 1006546c     LIBCMT:crt0msg.obj
 0002:00004494       ??_C@_0DF@GAKBPDFP@R6027?$AN?6?9?5not?5enough?5space?5for?5lo@ 10065494     LIBCMT:crt0msg.obj
 0002:000044cc       ??_C@_0DF@IBLNNAIG@R6026?$AN?6?9?5not?5enough?5space?5for?5st@ 100654cc     LIBCMT:crt0msg.obj
 0002:00004504       ??_C@_0CG@IOHKGFNJ@R6025?$AN?6?9?5pure?5virtual?5function?5c@ 10065504     LIBCMT:crt0msg.obj
 0002:0000452c       ??_C@_0DF@JIJJFJDC@R6024?$AN?6?9?5not?5enough?5space?5for?5_o@ 1006552c     LIBCMT:crt0msg.obj
 0002:00004564       ??_C@_0CJ@EGEJHFME@R6019?$AN?6?9?5unable?5to?5open?5console?5@ 10065564     LIBCMT:crt0msg.obj
 0002:00004590       ??_C@_0CB@GNHNIELH@R6018?$AN?6?9?5unexpected?5heap?5error?$AN?6@ 10065590     LIBCMT:crt0msg.obj
 0002:000045b4       ??_C@_0CN@FOLDKNG@R6017?$AN?6?9?5unexpected?5multithread?5@ 100655b4     LIBCMT:crt0msg.obj
 0002:000045e4       ??_C@_0CM@FAHFJNHO@R6016?$AN?6?9?5not?5enough?5space?5for?5th@ 100655e4     LIBCMT:crt0msg.obj
 0002:00004610       ??_C@_0JG@LBKMGKLD@?$AN?6This?5application?5has?5requested@ 10065610     LIBCMT:crt0msg.obj
 0002:000046a8       ??_C@_0CM@FLCNIPKK@R6009?$AN?6?9?5not?5enough?5space?5for?5en@ 100656a8     LIBCMT:crt0msg.obj
 0002:000046d4       ??_C@_0CK@KMMJOAPP@R6008?$AN?6?9?5not?5enough?5space?5for?5ar@ 100656d4     LIBCMT:crt0msg.obj
 0002:00004700       ??_C@_0CN@LEKKICBM@R6002?$AN?6?9?5floating?5point?5support?5@ 10065700     LIBCMT:crt0msg.obj
 0002:00004730       ??_C@_0CF@GOGNBNAK@Microsoft?5Visual?5C?$CL?$CL?5Runtime?5Lib@ 10065730     LIBCMT:crt0msg.obj
 0002:00004758       ??_C@_02PHMGELLB@?6?6?$AA@ 10065758     LIBCMT:crt0msg.obj
 0002:0000475c       ??_C@_0BH@DNAGHKFM@?$DMprogram?5name?5unknown?$DO?$AA@ 1006575c     LIBCMT:crt0msg.obj
 0002:00004774       ??_C@_0BK@OFGJDLJJ@Runtime?5Error?$CB?6?6Program?3?5?$AA@ 10065774     LIBCMT:crt0msg.obj
 0002:00004790       ??_C@_1O@CEDCILHN@?$AA?$CI?$AAn?$AAu?$AAl?$AAl?$AA?$CJ?$AA?$AA@ 10065790     LIBCMT:output.obj
 0002:000047a0       ??_C@_06OJHGLDPL@?$CInull?$CJ?$AA@ 100657a0     LIBCMT:output.obj
 0002:000047a8       ___lookuptable             100657a8     LIBCMT:output.obj
 0002:00004804       ??_C@_13NOLLCAOD@?$AA?$AA?$AA?$AA@ 10065804     LIBCMT:a_map.obj
 0002:00004808       ??_C@_0P@MIGLKIOC@CorExitProcess?$AA@ 10065808     LIBCMT:crt0dat.obj
 0002:00004818       ??_C@_0M@MBOPBNBK@mscoree?4dll?$AA@ 10065818     LIBCMT:crt0dat.obj
 0002:00004824       ??_C@_05KLBDPFGC@e?$CL000?$AA@ 10065824     LIBCMT:cvt.obj
 0002:00004830       __real@4150017ec0000000    10065830     LIBCMT:testfdiv.obj
 0002:00004838       __real@4147ffff80000000    10065838     LIBCMT:testfdiv.obj
 0002:00004840       ??_C@_0BK@NHEOCAHP@IsProcessorFeaturePresent?$AA@ 10065840     LIBCMT:testfdiv.obj
 0002:0000485c       ??_C@_08CPNIBGIE@KERNEL32?$AA@ 1006585c     LIBCMT:testfdiv.obj
 0002:00004868       ??_C@_0BK@CFCOFLF@?5Complete?5Object?5Locator?8?$AA@ 10065868     LIBCMT:undname.obj
 0002:00004884       ??_C@_0BN@MECKDCOJ@?5Class?5Hierarchy?5Descriptor?8?$AA@ 10065884     LIBCMT:undname.obj
 0002:000048a4       ??_C@_0BD@LGICGFMM@?5Base?5Class?5Array?8?$AA@ 100658a4     LIBCMT:undname.obj
 0002:000048b8       ??_C@_0BM@LDKODKLH@?5Base?5Class?5Descriptor?5at?5?$CI?$AA@ 100658b8     LIBCMT:undname.obj
 0002:000048d4       ??_C@_0BC@DAFEJGAK@?5Type?5Descriptor?8?$AA@ 100658d4     LIBCMT:undname.obj
 0002:000048e8       ??_C@_0BM@PMGGMLDN@?$GAlocal?5static?5thread?5guard?8?$AA@ 100658e8     LIBCMT:undname.obj
 0002:00004904       ??_C@_0CL@FGIJHLCE@?$GAmanaged?5vector?5copy?5constructor@ 10065904     LIBCMT:undname.obj
 0002:00004930       ??_C@_0CJ@GJELGAMM@?$GAvector?5vbase?5copy?5constructor?5i@ 10065930     LIBCMT:undname.obj
 0002:0000495c       ??_C@_0CD@CGAJBKEJ@?$GAvector?5copy?5constructor?5iterato@ 1006595c     LIBCMT:undname.obj
 0002:00004980       ??_C@_0CB@PDBIFEP@?$GAdynamic?5atexit?5destructor?5for?5?8@ 10065980     LIBCMT:undname.obj
 0002:000049a4       ??_C@_0BL@CLIPGLGB@?$GAdynamic?5initializer?5for?5?8?$AA@ 100659a4     LIBCMT:undname.obj
 0002:000049c0       ??_C@_0CM@FCBBDIGB@?$GAeh?5vector?5vbase?5copy?5constructo@ 100659c0     LIBCMT:undname.obj
 0002:000049ec       ??_C@_0CG@HLDDJMAG@?$GAeh?5vector?5copy?5constructor?5iter@ 100659ec     LIBCMT:undname.obj
 0002:00004a14       ??_C@_0CF@IMGKMJNO@?$GAmanaged?5vector?5destructor?5itera@ 10065a14     LIBCMT:undname.obj
 0002:00004a3c       ??_C@_0CG@CFDHKGGD@?$GAmanaged?5vector?5constructor?5iter@ 10065a3c     LIBCMT:undname.obj
 0002:00004a64       ??_C@_0BN@CKNJLHMB@?$GAplacement?5delete?$FL?$FN?5closure?8?$AA@ 10065a64     LIBCMT:undname.obj
 0002:00004a84       ??_C@_0BL@CNOONJFP@?$GAplacement?5delete?5closure?8?$AA@ 10065a84     LIBCMT:undname.obj
 0002:00004aa0       ??_C@_0P@HJKNJFNN@?$GAomni?5callsig?8?$AA@ 10065aa0     LIBCMT:undname.obj
 0002:00004ab0       ??_C@_09LBNFPBCA@?5delete?$FL?$FN?$AA@ 10065ab0     LIBCMT:undname.obj
 0002:00004abc       ??_C@_06FHBGPFGH@?5new?$FL?$FN?$AA@ 10065abc     LIBCMT:undname.obj
 0002:00004ac4       ??_C@_0CE@IIHCMGGL@?$GAlocal?5vftable?5constructor?5closu@ 10065ac4     LIBCMT:undname.obj
 0002:00004ae8       ??_C@_0BA@KKLDJDLB@?$GAlocal?5vftable?8?$AA@ 10065ae8     LIBCMT:undname.obj
 0002:00004af8       ??_C@_05KHLCHHI@?$GARTTI?$AA@ 10065af8     LIBCMT:undname.obj
 0002:00004b00       ??_C@_03KLGMFNMG@?$GAEH?$AA@ 10065b00     LIBCMT:undname.obj
 0002:00004b04       ??_C@_0BA@KBCDOMBN@?$GAudt?5returning?8?$AA@ 10065b04     LIBCMT:undname.obj
 0002:00004b14       ??_C@_0BL@LLKPOHJI@?$GAcopy?5constructor?5closure?8?$AA@ 10065b14     LIBCMT:undname.obj
 0002:00004b30       ??_C@_0CH@OOJPLCPH@?$GAeh?5vector?5vbase?5constructor?5ite@ 10065b30     LIBCMT:undname.obj
 0002:00004b58       ??_C@_0CA@GCEOPDGL@?$GAeh?5vector?5destructor?5iterator?8?$AA@ 10065b58     LIBCMT:undname.obj
 0002:00004b78       ??_C@_0CB@JONCMFFK@?$GAeh?5vector?5constructor?5iterator?8@ 10065b78     LIBCMT:undname.obj
 0002:00004b9c       ??_C@_0BL@NILFHHPC@?$GAvirtual?5displacement?5map?8?$AA@ 10065b9c     LIBCMT:undname.obj
 0002:00004bb8       ??_C@_0CE@IKBNEHA@?$GAvector?5vbase?5constructor?5iterat@ 10065bb8     LIBCMT:undname.obj
 0002:00004bdc       ??_C@_0BN@LFPFMEDL@?$GAvector?5destructor?5iterator?8?$AA@ 10065bdc     LIBCMT:undname.obj
 0002:00004bfc       ??_C@_0BO@PFGOCPJJ@?$GAvector?5constructor?5iterator?8?$AA@ 10065bfc     LIBCMT:undname.obj
 0002:00004c1c       ??_C@_0BN@IMDCHIKM@?$GAscalar?5deleting?5destructor?8?$AA@ 10065c1c     LIBCMT:undname.obj
 0002:00004c3c       ??_C@_0BO@OBMKPJIG@?$GAdefault?5constructor?5closure?8?$AA@ 10065c3c     LIBCMT:undname.obj
 0002:00004c5c       ??_C@_0BN@DEGPLNFK@?$GAvector?5deleting?5destructor?8?$AA@ 10065c5c     LIBCMT:undname.obj
 0002:00004c7c       ??_C@_0BD@JDLKDPAB@?$GAvbase?5destructor?8?$AA@ 10065c7c     LIBCMT:undname.obj
 0002:00004c90       ??_C@_08OBABFOLI@?$GAstring?8?$AA@ 10065c90     LIBCMT:undname.obj
 0002:00004c9c       ??_C@_0BF@KDPPACIK@?$GAlocal?5static?5guard?8?$AA@ 10065c9c     LIBCMT:undname.obj
 0002:00004cb4       ??_C@_08LLFFHHDJ@?$GAtypeof?8?$AA@ 10065cb4     LIBCMT:undname.obj
 0002:00004cc0       ??_C@_07FEEIOKP@?$GAvcall?8?$AA@ 10065cc0     LIBCMT:undname.obj
 0002:00004cc8       ??_C@_09BLBHBJP@?$GAvbtable?8?$AA@ 10065cc8     LIBCMT:undname.obj
 0002:00004cd4       ??_C@_09IFPLHPGF@?$GAvftable?8?$AA@ 10065cd4     LIBCMT:undname.obj
 0002:00004ce0       ??_C@_02MHEGNOJ@?$FO?$DN?$AA@ 10065ce0     LIBCMT:undname.obj
 0002:00004ce4       ??_C@_02DHLNPPGH@?$HM?$DN?$AA@ 10065ce4     LIBCMT:undname.obj
 0002:00004ce8       ??_C@_02FGJGFEAB@?$CG?$DN?$AA@ 10065ce8     LIBCMT:undname.obj
 0002:00004cec       ??_C@_03CDNPDDLA@?$DM?$DM?$DN?$AA@ 10065cec     LIBCMT:undname.obj
 0002:00004cf0       ??_C@_03IKFCCPFF@?$DO?$DO?$DN?$AA@ 10065cf0     LIBCMT:undname.obj
 0002:00004cf4       ??_C@_02FENAOKFI@?$CF?$DN?$AA@ 10065cf4     LIBCMT:undname.obj
 0002:00004cf8       ??_C@_02FJEHGPIO@?1?$DN?$AA@ 10065cf8     LIBCMT:undname.obj
 0002:00004cfc       ??_C@_02FKMDLLOA@?9?$DN?$AA@ 10065cfc     LIBCMT:undname.obj
 0002:00004d00       ??_C@_02FOEOMHFC@?$CL?$DN?$AA@ 10065d00     LIBCMT:undname.obj
 0002:00004d04       ??_C@_02FPIMKNGF@?$CK?$DN?$AA@ 10065d04     LIBCMT:undname.obj
 0002:00004d08       ??_C@_02NONPIBCD@?$HM?$HM?$AA@ 10065d08     LIBCMT:undname.obj
 0002:00004d0c       ??_C@_02PPKAJPJL@?$CG?$CG?$AA@ 10065d0c     LIBCMT:undname.obj
 0002:00004d10       ??_C@_01DNKMNLPK@?$HM?$AA@ 10065d10     LIBCMT:undname.obj
 0002:00004d14       ??_C@_01JKBOJNNK@?$FO?$AA@ 10065d14     LIBCMT:undname.obj
 0002:00004d18       ??_C@_01PJKLJHI@?$HO?$AA@  10065d18     LIBCMT:undname.obj
 0002:00004d1c       ??_C@_02HCKGKOFO@?$CI?$CJ?$AA@ 10065d1c     LIBCMT:undname.obj
 0002:00004d20       ??_C@_01IHBHIGKO@?0?$AA@   10065d20     LIBCMT:undname.obj
 0002:00004d24       ??_C@_02EEKDKGMJ@?$DO?$DN?$AA@ 10065d24     LIBCMT:undname.obj
 0002:00004d28       ??_C@_01PPODPGHN@?$DO?$AA@ 10065d28     LIBCMT:undname.obj
 0002:00004d2c       ??_C@_02EHCHHCKH@?$DM?$DN?$AA@ 10065d2c     LIBCMT:undname.obj
 0002:00004d30       ??_C@_01MNNFJEPP@?$DM?$AA@ 10065d30     LIBCMT:undname.obj
 0002:00004d34       ??_C@_01FGNFDNOH@?$CF?$AA@ 10065d34     LIBCMT:undname.obj
 0002:00004d38       ??_C@_01KMDKNFGN@?1?$AA@   10065d38     LIBCMT:undname.obj
 0002:00004d3c       ??_C@_03MNHNFDLC@?9?$DO?$CK?$AA@ 10065d3c     LIBCMT:undname.obj
 0002:00004d40       ??_C@_01HNPIGOCE@?$CG?$AA@ 10065d40     LIBCMT:undname.obj
 0002:00004d44       ??_C@_01MIFGBAGJ@?$CL?$AA@ 10065d44     LIBCMT:undname.obj
 0002:00004d48       ??_C@_01JOAMLHOP@?9?$AA@   10065d48     LIBCMT:undname.obj
 0002:00004d4c       ??_C@_02ECNGHCIF@?$CL?$CL?$AA@ 10065d4c     LIBCMT:undname.obj
 0002:00004d50       ??_C@_01NBENCBCI@?$CK?$AA@ 10065d50     LIBCMT:undname.obj
 0002:00004d54       ??_C@_02GPECMEKF@?$FL?$FN?$AA@ 10065d54     LIBCMT:undname.obj
 0002:00004d58       ??_C@_02FDNJECIE@?$CB?$DN?$AA@ 10065d58     LIBCMT:undname.obj
 0002:00004d5c       ??_C@_02EGOFBIJA@?$DN?$DN?$AA@ 10065d5c     LIBCMT:undname.obj
 0002:00004d60       ??_C@_01DCLJPIOD@?$CB?$AA@ 10065d60     LIBCMT:undname.obj
 0002:00004d64       ??_C@_02FODMEDOG@?$DM?$DM?$AA@ 10065d64     LIBCMT:undname.obj
 0002:00004d68       ??_C@_02GPIOPFAK@?$DO?$DO?$AA@ 10065d68     LIBCMT:undname.obj
 0002:00004d6c       ??_C@_07FPCDHGMM@?5delete?$AA@ 10065d6c     LIBCMT:undname.obj
 0002:00004d74       ??_C@_04NIHEBCM@?5new?$AA@ 10065d74     LIBCMT:undname.obj
 0002:00004d7c       ??_C@_0M@GFIIJFMG@__unaligned?$AA@ 10065d7c     LIBCMT:undname.obj
 0002:00004d88       ??_C@_0L@PILCLIHE@__restrict?$AA@ 10065d88     LIBCMT:undname.obj
 0002:00004d94       ??_C@_07JOMMBBKO@__ptr64?$AA@ 10065d94     LIBCMT:undname.obj
 0002:00004d9c       ??_C@_09HIJEGCPM@__clrcall?$AA@ 10065d9c     LIBCMT:undname.obj
 0002:00004da8       ??_C@_0L@JMKHOMEK@__fastcall?$AA@ 10065da8     LIBCMT:undname.obj
 0002:00004db4       ??_C@_0L@NPHFGOKO@__thiscall?$AA@ 10065db4     LIBCMT:undname.obj
 0002:00004dc0       ??_C@_09IFJBGAPI@__stdcall?$AA@ 10065dc0     LIBCMT:undname.obj
 0002:00004dcc       ??_C@_08GHMPAG@__pascal?$AA@ 10065dcc     LIBCMT:undname.obj
 0002:00004dd8       ??_C@_07KOLFKCDI@__cdecl?$AA@ 10065dd8     LIBCMT:undname.obj
 0002:00004de0       ??_C@_08EHJDFFNH@__based?$CI?$AA@ 10065de0     LIBCMT:undname.obj
 0002:00004f70       ___newctype                10065f70     LIBCMT:ctype.obj
 0002:00005270       __wctype                   10066270     LIBCMT:ctype.obj
 0002:00005478       ___newclmap                10066478     LIBCMT:ctype.obj
 0002:000055f8       ___newcumap                100665f8     LIBCMT:ctype.obj
 0002:00005778       ??_C@_08JCCMCCIL@HH?3mm?3ss?$AA@ 10066778     LIBCMT:strftime.obj
 0002:00005784       ??_C@_0BE@CKGJFCPC@dddd?0?5MMMM?5dd?0?5yyyy?$AA@ 10066784     LIBCMT:strftime.obj
 0002:00005798       ??_C@_08BPBNCDIB@MM?1dd?1yy?$AA@ 10066798     LIBCMT:strftime.obj
 0002:000057a4       ??_C@_02CJNFDJBF@PM?$AA@   100667a4     LIBCMT:strftime.obj
 0002:000057a8       ??_C@_02DEDBPAFC@AM?$AA@   100667a8     LIBCMT:strftime.obj
 0002:000057ac       ??_C@_08EDHMEBNP@December?$AA@ 100667ac     LIBCMT:strftime.obj
 0002:000057b8       ??_C@_08HCHEGEOA@November?$AA@ 100667b8     LIBCMT:strftime.obj
 0002:000057c4       ??_C@_07JJNFCEND@October?$AA@ 100667c4     LIBCMT:strftime.obj
 0002:000057cc       ??_C@_09BHHEALKD@September?$AA@ 100667cc     LIBCMT:strftime.obj
 0002:000057d8       ??_C@_06LBBHFDDG@August?$AA@ 100667d8     LIBCMT:strftime.obj
 0002:000057e0       ??_C@_04MIEPOIFP@July?$AA@ 100667e0     LIBCMT:strftime.obj
 0002:000057e8       ??_C@_04CNLMGBGM@June?$AA@ 100667e8     LIBCMT:strftime.obj
 0002:000057f0       ??_C@_05DMJDNLEJ@April?$AA@ 100667f0     LIBCMT:strftime.obj
 0002:000057f8       ??_C@_05HPCKOFNC@March?$AA@ 100667f8     LIBCMT:strftime.obj
 0002:00005800       ??_C@_08GNJGEPFN@February?$AA@ 10066800     LIBCMT:strftime.obj
 0002:0000580c       ??_C@_07CGJPFGJA@January?$AA@ 1006680c     LIBCMT:strftime.obj
 0002:00005814       ??_C@_03MKABNOCG@Dec?$AA@  10066814     LIBCMT:strftime.obj
 0002:00005818       ??_C@_03JPJOFNIA@Nov?$AA@  10066818     LIBCMT:strftime.obj
 0002:0000581c       ??_C@_03BMAOKBAD@Oct?$AA@  1006681c     LIBCMT:strftime.obj
 0002:00005820       ??_C@_03GGCAPAJC@Sep?$AA@  10066820     LIBCMT:strftime.obj
 0002:00005824       ??_C@_03IFJFEIGA@Aug?$AA@  10066824     LIBCMT:strftime.obj
 0002:00005828       ??_C@_03LBGABGKK@Jul?$AA@  10066828     LIBCMT:strftime.obj
 0002:0000582c       ??_C@_03IDFGHECI@Jun?$AA@  1006682c     LIBCMT:strftime.obj
 0002:00005830       ??_C@_03CNMDKL@May?$AA@    10066830     LIBCMT:strftime.obj
 0002:00005834       ??_C@_03LEOLGMJP@Apr?$AA@  10066834     LIBCMT:strftime.obj
 0002:00005838       ??_C@_03ODNJBKGA@Mar?$AA@  10066838     LIBCMT:strftime.obj
 0002:0000583c       ??_C@_03HJBDCHOM@Feb?$AA@  1006683c     LIBCMT:strftime.obj
 0002:00005840       ??_C@_03JIHJHPIE@Jan?$AA@  10066840     LIBCMT:strftime.obj
 0002:00005844       ??_C@_08INBOOONO@Saturday?$AA@ 10066844     LIBCMT:strftime.obj
 0002:00005850       ??_C@_06JECMNKMI@Friday?$AA@ 10066850     LIBCMT:strftime.obj
 0002:00005858       ??_C@_08HACCIKIA@Thursday?$AA@ 10066858     LIBCMT:strftime.obj
 0002:00005864       ??_C@_09DLIGFAKA@Wednesday?$AA@ 10066864     LIBCMT:strftime.obj
 0002:00005870       ??_C@_07BAAGCFCM@Tuesday?$AA@ 10066870     LIBCMT:strftime.obj
 0002:00005878       ??_C@_06JLEDEDGH@Monday?$AA@ 10066878     LIBCMT:strftime.obj
 0002:00005880       ??_C@_06OOPIFAJ@Sunday?$AA@ 10066880     LIBCMT:strftime.obj
 0002:00005888       ??_C@_03FEFJNEK@Sat?$AA@   10066888     LIBCMT:strftime.obj
 0002:0000588c       ??_C@_03IDIOELNC@Fri?$AA@  1006688c     LIBCMT:strftime.obj
 0002:00005890       ??_C@_03IOFIKPDN@Thu?$AA@  10066890     LIBCMT:strftime.obj
 0002:00005894       ??_C@_03MHOMLAJA@Wed?$AA@  10066894     LIBCMT:strftime.obj
 0002:00005898       ??_C@_03NAGEINEP@Tue?$AA@  10066898     LIBCMT:strftime.obj
 0002:0000589c       ??_C@_03PDAGKDH@Mon?$AA@   1006689c     LIBCMT:strftime.obj
 0002:000058a0       ??_C@_03KOEHGMDN@Sun?$AA@  100668a0     LIBCMT:strftime.obj
 0002:000058a4       ??_C@_0BI@DFKBFLJE@GetProcessWindowStation?$AA@ 100668a4     LIBCMT:crtmbox.obj
 0002:000058bc       ??_C@_0BK@CIDNPOGP@GetUserObjectInformationA?$AA@ 100668bc     LIBCMT:crtmbox.obj
 0002:000058d8       ??_C@_0BD@HHGDFDBJ@GetLastActivePopup?$AA@ 100668d8     LIBCMT:crtmbox.obj
 0002:000058ec       ??_C@_0BA@HNOPNCHB@GetActiveWindow?$AA@ 100668ec     LIBCMT:crtmbox.obj
 0002:000058fc       ??_C@_0M@CHKKJDAI@MessageBoxA?$AA@ 100668fc     LIBCMT:crtmbox.obj
 0002:00005908       ??_C@_0L@NDEGIDAG@USER32?4DLL?$AA@ 10066908     LIBCMT:crtmbox.obj
 0002:00005918       ___lookuptable_s           10066918     LIBCMT:outputs.obj
 0002:00005974       ??_C@_0CG@PKBDLMEO@InitializeCriticalSectionAndSpin@ 10066974     LIBCMT:initcrit.obj
 0002:0000599c       ??_C@_0N@MDJJJHMB@kernel32?4dll?$AA@ 1006699c     LIBCMT:initcrit.obj
 0002:000059ac       ___dnames                  100669ac     LIBCMT:timeset.obj
 0002:000059c4       ___mnames                  100669c4     LIBCMT:timeset.obj
 0002:000059ec       ??_C@_06IMKFLFPG@1?$CDQNAN?$AA@ 100669ec     LIBCMT:x10fout.obj
 0002:000059f4       ??_C@_05DNEBIAHO@1?$CDINF?$AA@ 100669f4     LIBCMT:x10fout.obj
 0002:000059fc       ??_C@_05PHHOCPM@1?$CDIND?$AA@ 100669fc     LIBCMT:x10fout.obj
 0002:00005a04       ??_C@_06PGGFOGJG@1?$CDSNAN?$AA@ 10066a04     LIBCMT:x10fout.obj
 0002:00005a0c       ??_C@_07GPDNMNG@CONOUT$?$AA@ 10066a0c     LIBCMT:initcon.obj
 0002:00005a18       __load_config_used         10066a18     LIBCMT:loadcfg.obj
 0002:00005a60       ??_R4Window@@6B@           10066a60     CallTip.obj
 0002:00005a74       ??_R3Window@@8             10066a74     CallTip.obj
 0002:00005a84       ??_R2Window@@8             10066a84     CallTip.obj
 0002:00005a8c       ??_R1A@?0A@EA@Window@@8    10066a8c     CallTip.obj
 0002:00005aa8       ??_R4ContractionState@@6B@ 10066aa8     ContractionState.obj
 0002:00005abc       ??_R3ContractionState@@8   10066abc     ContractionState.obj
 0002:00005acc       ??_R2ContractionState@@8   10066acc     ContractionState.obj
 0002:00005ad4       ??_R1A@?0A@EA@ContractionState@@8 10066ad4     ContractionState.obj
 0002:00005af0       ??_R4PerLine@@6B@          10066af0     Document.obj
 0002:00005b04       ??_R3PerLine@@8            10066b04     Document.obj
 0002:00005b14       ??_R2PerLine@@8            10066b14     Document.obj
 0002:00005b1c       ??_R1A@?0A@EA@PerLine@@8   10066b1c     Document.obj
 0002:00005b38       ??_R4RegexSearchBase@@6B@  10066b38     Document.obj
 0002:00005b4c       ??_R3RegexSearchBase@@8    10066b4c     Document.obj
 0002:00005b5c       ??_R2RegexSearchBase@@8    10066b5c     Document.obj
 0002:00005b64       ??_R1A@?0A@EA@RegexSearchBase@@8 10066b64     Document.obj
 0002:00005b80       ??_R4CharacterIndexer@@6B@ 10066b80     Document.obj
 0002:00005b94       ??_R3CharacterIndexer@@8   10066b94     Document.obj
 0002:00005ba4       ??_R2CharacterIndexer@@8   10066ba4     Document.obj
 0002:00005bac       ??_R1A@?0A@EA@CharacterIndexer@@8 10066bac     Document.obj
 0002:00005bc8       ??_R4Document@@6B@         10066bc8     Document.obj
 0002:00005bdc       ??_R3Document@@8           10066bdc     Document.obj
 0002:00005bec       ??_R2Document@@8           10066bec     Document.obj
 0002:00005bf8       ??_R1A@?0A@EA@Document@@8  10066bf8     Document.obj
 0002:00005c14       ??_R1A@?0A@EN@PerLine@@8   10066c14     Document.obj
 0002:00005c30       ??_R4BuiltinRegex@@6B@     10066c30     Document.obj
 0002:00005c44       ??_R3BuiltinRegex@@8       10066c44     Document.obj
 0002:00005c54       ??_R2BuiltinRegex@@8       10066c54     Document.obj
 0002:00005c60       ??_R1A@?0A@EA@BuiltinRegex@@8 10066c60     Document.obj
 0002:00005c7c       ??_R4DocumentIndexer@@6B@  10066c7c     Document.obj
 0002:00005c90       ??_R3DocumentIndexer@@8    10066c90     Document.obj
 0002:00005ca0       ??_R2DocumentIndexer@@8    10066ca0     Document.obj
 0002:00005cac       ??_R1A@?0A@EA@DocumentIndexer@@8 10066cac     Document.obj
 0002:00005cc8       ??_R4LineMarkers@@6B@      10066cc8     Document.obj
 0002:00005cdc       ??_R3LineMarkers@@8        10066cdc     Document.obj
 0002:00005cec       ??_R2LineMarkers@@8        10066cec     Document.obj
 0002:00005cf8       ??_R1A@?0A@EA@LineMarkers@@8 10066cf8     Document.obj
 0002:00005d14       ??_R4LineState@@6B@        10066d14     Document.obj
 0002:00005d28       ??_R3LineState@@8          10066d28     Document.obj
 0002:00005d38       ??_R2LineState@@8          10066d38     Document.obj
 0002:00005d44       ??_R1A@?0A@EA@LineState@@8 10066d44     Document.obj
 0002:00005d60       ??_R4LineAnnotation@@6B@   10066d60     Document.obj
 0002:00005d74       ??_R3LineAnnotation@@8     10066d74     Document.obj
 0002:00005d84       ??_R2LineAnnotation@@8     10066d84     Document.obj
 0002:00005d90       ??_R1A@?0A@EA@LineAnnotation@@8 10066d90     Document.obj
 0002:00005dac       ??_R4LineLevels@@6B@       10066dac     Document.obj
 0002:00005dc0       ??_R3LineLevels@@8         10066dc0     Document.obj
 0002:00005dd0       ??_R2LineLevels@@8         10066dd0     Document.obj
 0002:00005ddc       ??_R1A@?0A@EA@LineLevels@@8 10066ddc     Document.obj
 0002:00005df8       ??_R4Accessor@@6B@         10066df8     DocumentAccessor.obj
 0002:00005e0c       ??_R3Accessor@@8           10066e0c     DocumentAccessor.obj
 0002:00005e1c       ??_R2Accessor@@8           10066e1c     DocumentAccessor.obj
 0002:00005e24       ??_R1A@?0A@EA@Accessor@@8  10066e24     DocumentAccessor.obj
 0002:00005e40       ??_R4DocWatcher@@6B@       10066e40     Editor.obj
 0002:00005e54       ??_R3DocWatcher@@8         10066e54     Editor.obj
 0002:00005e64       ??_R2DocWatcher@@8         10066e64     Editor.obj
 0002:00005e6c       ??_R1A@?0A@EA@DocWatcher@@8 10066e6c     Editor.obj
 0002:00005e88       ??_R4Editor@@6B@           10066e88     Editor.obj
 0002:00005e9c       ??_R3Editor@@8             10066e9c     Editor.obj
 0002:00005eac       ??_R2Editor@@8             10066eac     Editor.obj
 0002:00005eb8       ??_R1A@?0A@EA@Editor@@8    10066eb8     Editor.obj
 0002:00005ed4       ??_R4LexerModule@@6B@      10066ed4     ExternalLexer.obj
 0002:00005ee8       ??_R3LexerModule@@8        10066ee8     ExternalLexer.obj
 0002:00005ef8       ??_R2LexerModule@@8        10066ef8     ExternalLexer.obj
 0002:00005f00       ??_R1A@?0A@EA@LexerModule@@8 10066f00     ExternalLexer.obj
 0002:00005f1c       ??_R4ExternalLexerModule@@6B@ 10066f1c     ExternalLexer.obj
 0002:00005f30       ??_R3ExternalLexerModule@@8 10066f30     ExternalLexer.obj
 0002:00005f40       ??_R2ExternalLexerModule@@8 10066f40     ExternalLexer.obj
 0002:00005f4c       ??_R1A@?0A@EA@ExternalLexerModule@@8 10066f4c     ExternalLexer.obj
 0002:00005f68       ??_R1A@?0A@EN@LexerModule@@8 10066f68     ExternalLexer.obj
 0002:00005f84       ??_R4Surface@@6B@          10066f84     PlatWin.obj
 0002:00005f98       ??_R3Surface@@8            10066f98     PlatWin.obj
 0002:00005fa8       ??_R2Surface@@8            10066fa8     PlatWin.obj
 0002:00005fb0       ??_R1A@?0A@EA@Surface@@8   10066fb0     PlatWin.obj
 0002:00005fcc       ??_R4DynamicLibrary@@6B@   10066fcc     PlatWin.obj
 0002:00005fe0       ??_R3DynamicLibrary@@8     10066fe0     PlatWin.obj
 0002:00005ff0       ??_R2DynamicLibrary@@8     10066ff0     PlatWin.obj
 0002:00005ff8       ??_R1A@?0A@EA@DynamicLibrary@@8 10066ff8     PlatWin.obj
 0002:00006014       ??_R4Font@@6B@             10067014     PlatWin.obj
 0002:00006028       ??_R3Font@@8               10067028     PlatWin.obj
 0002:00006038       ??_R2Font@@8               10067038     PlatWin.obj
 0002:00006040       ??_R1A@?0A@EA@Font@@8      10067040     PlatWin.obj
 0002:0000605c       ??_R4SurfaceImpl@@6B@      1006705c     PlatWin.obj
 0002:00006070       ??_R3SurfaceImpl@@8        10067070     PlatWin.obj
 0002:00006080       ??_R2SurfaceImpl@@8        10067080     PlatWin.obj
 0002:0000608c       ??_R1A@?0A@EA@SurfaceImpl@@8 1006708c     PlatWin.obj
 0002:000060a8       ??_R4ListBox@@6B@          100670a8     PlatWin.obj
 0002:000060bc       ??_R3ListBox@@8            100670bc     PlatWin.obj
 0002:000060cc       ??_R2ListBox@@8            100670cc     PlatWin.obj
 0002:000060d8       ??_R1A@?0A@EA@ListBox@@8   100670d8     PlatWin.obj
 0002:000060f4       ??_R4FontCached@@6B@       100670f4     PlatWin.obj
 0002:00006108       ??_R3FontCached@@8         10067108     PlatWin.obj
 0002:00006118       ??_R2FontCached@@8         10067118     PlatWin.obj
 0002:00006124       ??_R1A@?0A@EA@FontCached@@8 10067124     PlatWin.obj
 0002:00006140       ??_R1A@?0A@EN@Font@@8      10067140     PlatWin.obj
 0002:0000615c       ??_R4ListBoxX@@6B@         1006715c     PlatWin.obj
 0002:00006170       ??_R3ListBoxX@@8           10067170     PlatWin.obj
 0002:00006180       ??_R2ListBoxX@@8           10067180     PlatWin.obj
 0002:00006190       ??_R1A@?0A@EA@ListBoxX@@8  10067190     PlatWin.obj
 0002:000061ac       ??_R4DynamicLibraryImpl@@6B@ 100671ac     PlatWin.obj
 0002:000061c0       ??_R3DynamicLibraryImpl@@8 100671c0     PlatWin.obj
 0002:000061d0       ??_R2DynamicLibraryImpl@@8 100671d0     PlatWin.obj
 0002:000061dc       ??_R1A@?0A@EA@DynamicLibraryImpl@@8 100671dc     PlatWin.obj
 0002:000061f8       ??_R4LineLayout@@6B@       100671f8     PositionCache.obj
 0002:0000620c       ??_R3LineLayout@@8         1006720c     PositionCache.obj
 0002:0000621c       ??_R2LineLayout@@8         1006721c     PositionCache.obj
 0002:00006224       ??_R1A@?0A@EA@LineLayout@@8 10067224     PositionCache.obj
 0002:00006240       ??_R4LineLayoutCache@@6B@  10067240     PositionCache.obj
 0002:00006254       ??_R3LineLayoutCache@@8    10067254     PositionCache.obj
 0002:00006264       ??_R2LineLayoutCache@@8    10067264     PositionCache.obj
 0002:0000626c       ??_R1A@?0A@EA@LineLayoutCache@@8 1006726c     PositionCache.obj
 0002:00006288       ??_R4DocumentAccessor@@6B@ 10067288     ScintillaBase.obj
 0002:0000629c       ??_R3DocumentAccessor@@8   1006729c     ScintillaBase.obj
 0002:000062ac       ??_R2DocumentAccessor@@8   100672ac     ScintillaBase.obj
 0002:000062b8       ??_R1A@?0A@EA@DocumentAccessor@@8 100672b8     ScintillaBase.obj
 0002:000062d4       ??_R4ScintillaBase@@6B@    100672d4     ScintillaBase.obj
 0002:000062e8       ??_R3ScintillaBase@@8      100672e8     ScintillaBase.obj
 0002:000062f8       ??_R2ScintillaBase@@8      100672f8     ScintillaBase.obj
 0002:00006308       ??_R1A@?0A@EA@ScintillaBase@@8 10067308     ScintillaBase.obj
 0002:00006324       ??_R4ScintillaWin@@6B@     10067324     ScintillaWin.obj
 0002:00006338       ??_R3ScintillaWin@@8       10067338     ScintillaWin.obj
 0002:00006348       ??_R2ScintillaWin@@8       10067348     ScintillaWin.obj
 0002:0000635c       ??_R1A@?0A@EA@ScintillaWin@@8 1006735c     ScintillaWin.obj
 0002:00006378       ??_R4type_info@@6B@        10067378     LIBCMT:typinfo.obj
 0002:0000638c       ??_R3type_info@@8          1006738c     LIBCMT:typinfo.obj
 0002:0000639c       ??_R2type_info@@8          1006739c     LIBCMT:typinfo.obj
 0002:000063a4       ??_R1A@?0A@EA@type_info@@8 100673a4     LIBCMT:typinfo.obj
 0002:000063c0       ??_R4bad_alloc@std@@6B@    100673c0     LIBCMT:new.obj
 0002:000063d4       ??_R3bad_alloc@std@@8      100673d4     LIBCMT:new.obj
 0002:000063e4       ??_R2bad_alloc@std@@8      100673e4     LIBCMT:new.obj
 0002:000063f0       ??_R1A@?0A@EA@bad_alloc@std@@8 100673f0     LIBCMT:new.obj
 0002:0000640c       ??_R1A@?0A@EA@exception@std@@8 1006740c     LIBCMT:new.obj
 0002:00006428       ??_R3exception@std@@8      10067428     LIBCMT:new.obj
 0002:00006438       ??_R2exception@std@@8      10067438     LIBCMT:new.obj
 0002:00006440       ??_R4bad_exception@std@@6B@ 10067440     LIBCMT:frame.obj
 0002:00006454       ??_R3bad_exception@std@@8  10067454     LIBCMT:frame.obj
 0002:00006464       ??_R2bad_exception@std@@8  10067464     LIBCMT:frame.obj
 0002:00006470       ??_R1A@?0A@EA@bad_exception@std@@8 10067470     LIBCMT:frame.obj
 0002:0000648c       ??_R4exception@std@@6B@    1006748c     LIBCMT:stdexcpt.obj
 0002:000064a0       ___safe_se_handler_table   100674a0     <linker-defined>
 0002:00006684       ___rtc_iaa                 10067684     LIBCMT:initsect.obj
 0002:00006688       ___rtc_izz                 10067688     LIBCMT:initsect.obj
 0002:0000668c       ___rtc_taa                 1006768c     LIBCMT:initsect.obj
 0002:00006690       ___rtc_tzz                 10067690     LIBCMT:initsect.obj
 0002:0000803c       __TI2?AVbad_alloc@std@@    1006903c     LIBCMT:new.obj
 0002:0000804c       __CTA2?AVbad_alloc@std@@   1006904c     LIBCMT:new.obj
 0002:00008058       __CT??_R0?AVbad_alloc@std@@@8??0bad_alloc@std@@QAE@ABV01@@Z12 10069058     LIBCMT:new.obj
 0002:00008074       __CT??_R0?AVexception@std@@@8??0exception@std@@QAE@ABV01@@Z12 10069074     LIBCMT:new.obj
 0002:00008274       __TI2?AVbad_exception@std@@ 10069274     LIBCMT:frame.obj
 0002:00008284       __CTA2?AVbad_exception@std@@ 10069284     LIBCMT:frame.obj
 0002:00008290       __CT??_R0?AVbad_exception@std@@@8??0bad_exception@std@@QAE@ABV01@@Z12 10069290     LIBCMT:frame.obj
 0002:0000861c       __IMPORT_DESCRIPTOR_IMM32  1006961c     imm32:IMM32.dll
 0002:00008630       __IMPORT_DESCRIPTOR_KERNEL32 10069630     kernel32:KERNEL32.dll
 0002:00008644       __IMPORT_DESCRIPTOR_USER32 10069644     user32:USER32.dll
 0002:00008658       __IMPORT_DESCRIPTOR_GDI32  10069658     gdi32:GDI32.dll
 0002:0000866c       __IMPORT_DESCRIPTOR_ole32  1006966c     ole32:ole32.dll
 0002:00008680       __NULL_IMPORT_DESCRIPTOR   10069680     imm32:IMM32.dll
 0003:00000000       ??_R0?AVWindow@@@8         1006b000     CallTip.obj
 0003:00000018       ??_R0?AVContractionState@@@8 1006b018     ContractionState.obj
 0003:00000038       ??_R0?AVPerLine@@@8        1006b038     Document.obj
 0003:00000050       ??_R0?AVRegexSearchBase@@@8 1006b050     Document.obj
 0003:00000070       ??_R0?AVCharacterIndexer@@@8 1006b070     Document.obj
 0003:00000090       ??_R0?AVDocument@@@8       1006b090     Document.obj
 0003:000000a8       ??_R0?AVBuiltinRegex@@@8   1006b0a8     Document.obj
 0003:000000c4       ??_R0?AVDocumentIndexer@@@8 1006b0c4     Document.obj
 0003:000000e4       ??_R0?AVLineMarkers@@@8    1006b0e4     Document.obj
 0003:00000100       ??_R0?AVLineState@@@8      1006b100     Document.obj
 0003:00000118       ??_R0?AVLineAnnotation@@@8 1006b118     Document.obj
 0003:00000138       ??_R0?AVLineLevels@@@8     1006b138     Document.obj
 0003:00000154       ??_R0?AVAccessor@@@8       1006b154     DocumentAccessor.obj
 0003:0000016c       ??_R0?AVDocWatcher@@@8     1006b16c     Editor.obj
 0003:00000188       ??_R0?AVEditor@@@8         1006b188     Editor.obj
 0003:000001a0       ??_R0?AVLexerModule@@@8    1006b1a0     ExternalLexer.obj
 0003:000001bc       ??_R0?AVExternalLexerModule@@@8 1006b1bc     ExternalLexer.obj
 0003:000001e0       ?nextLanguage@LexerModule@@1HA 1006b1e0     KeyWords.obj
 0003:00000c0c       ?TextInset@ListBoxX@@0VPoint@@B 1006bc0c     PlatWin.obj
 0003:00000c14       ?ImageInset@ListBoxX@@0VPoint@@B 1006bc14     PlatWin.obj
 0003:00000c1c       ??_R0?AVSurface@@@8        1006bc1c     PlatWin.obj
 0003:00000c34       ??_R0?AVDynamicLibrary@@@8 1006bc34     PlatWin.obj
 0003:00000c54       ??_R0?AVFont@@@8           1006bc54     PlatWin.obj
 0003:00000c68       ??_R0?AVSurfaceImpl@@@8    1006bc68     PlatWin.obj
 0003:00000c84       ??_R0?AVListBox@@@8        1006bc84     PlatWin.obj
 0003:00000c9c       ??_R0?AVFontCached@@@8     1006bc9c     PlatWin.obj
 0003:00000cb8       ??_R0?AVListBoxX@@@8       1006bcb8     PlatWin.obj
 0003:00000cd0       ??_R0?AVDynamicLibraryImpl@@@8 1006bcd0     PlatWin.obj
 0003:00000cf4       ??_R0?AVLineLayout@@@8     1006bcf4     PositionCache.obj
 0003:00000d10       ??_R0?AVLineLayoutCache@@@8 1006bd10     PositionCache.obj
 0003:00000d30       ??_R0?AVDocumentAccessor@@@8 1006bd30     ScintillaBase.obj
 0003:00000d50       ??_R0?AVScintillaBase@@@8  1006bd50     ScintillaBase.obj
 0003:00000dec       ??_R0?AVScintillaWin@@@8   1006bdec     ScintillaWin.obj
 0003:00000e08       ??_R0?AVbad_alloc@std@@@8  1006be08     ScintillaWin.obj
 0003:00000e30       ___security_cookie         1006be30     LIBCMT:gs_cookie.obj
 0003:00000e34       ___security_cookie_complement 1006be34     LIBCMT:gs_cookie.obj
 0003:00000e3c       ??_R0?AVtype_info@@@8      1006be3c     LIBCMT:typinfo.obj
 0003:00000e64       ??_R0?AVexception@std@@@8  1006be64     LIBCMT:new.obj
 0003:00000e80       __fltused                  1006be80     LIBCMT:fpinit.obj
 0003:00000e84       __ldused                   1006be84     LIBCMT:fpinit.obj
 0003:00000e88       ___abort_behavior          1006be88     LIBCMT:abort.obj
 0003:00000e94       ??_R0?AVbad_exception@std@@@8 1006be94     LIBCMT:frame.obj
 0003:00000eb4       ___flsindex                1006beb4     LIBCMT:tidtable.obj
 0003:00000eb8       ___getvalueindex           1006beb8     LIBCMT:tidtable.obj
 0003:00000ec8       ___initialmbcinfo          1006bec8     LIBCMT:mbctype.obj
 0003:000010e8       __mbctype                  1006c0e8     LIBCMT:mbctype.obj
 0003:000011f0       __mbcasemap                1006c1f0     LIBCMT:mbctype.obj
 0003:000012f0       ___ptmbcinfo               1006c2f0     LIBCMT:mbctype.obj
 0003:000013ec       ___globallocalestatus      1006c3ec     LIBCMT:glstatus.obj
 0003:000013f0       ___clocalestr              1006c3f0     LIBCMT:nlsdata2.obj
 0003:000013f8       ___initiallocinfo          1006c3f8     LIBCMT:nlsdata2.obj
 0003:000014d0       ___ptlocinfo               1006c4d0     LIBCMT:nlsdata2.obj
 0003:000014d4       ___lc_clike                1006c4d4     LIBCMT:nlsdata2.obj
 0003:000014d8       ___initiallocalestructinfo 1006c4d8     LIBCMT:nlsdata2.obj
 0003:00001598       ___nullstring              1006c598     LIBCMT:output.obj
 0003:0000159c       ___wnullstring             1006c59c     LIBCMT:output.obj
 0003:00001710       __aexit_rtn                1006c710     LIBCMT:crt0dat.obj
 0003:00001720       __cfltcvt_tab              1006c720     LIBCMT:cmiscdat.obj
 0003:00001748       ___badioinfo               1006c748     LIBCMT:ioinit.obj
 0003:00001780       __amblksiz                 1006c780     LIBCMT:heapinit.obj
 0003:00001788       __XcptActTab               1006c788     LIBCMT:winxfltr.obj
 0003:00001800       __First_FPE_Indx           1006c800     LIBCMT:winxfltr.obj
 0003:00001804       __Num_FPE                  1006c804     LIBCMT:winxfltr.obj
 0003:00001808       __XcptActTabSize           1006c808     LIBCMT:winxfltr.obj
 0003:0000180c       __XcptActTabCount          1006c80c     LIBCMT:winxfltr.obj
 0003:00001930       __NLG_Destination          1006c930     LIBCMT:exsup.obj
 0003:00001940       __pctype                   1006c940     LIBCMT:ctype.obj
 0003:00001944       __pwctype                  1006c944     LIBCMT:ctype.obj
 0003:00001948       ___lc_time_c               1006c948     LIBCMT:strftime.obj
 0003:00001a00       ___lc_time_curr            1006ca00     LIBCMT:strftime.obj
 0003:00001a04       ___lconv_static_decimal    1006ca04     LIBCMT:lconv.obj
 0003:00001a08       ___lconv_c                 1006ca08     LIBCMT:lconv.obj
 0003:00001a38       ___lconv                   1006ca38     LIBCMT:lconv.obj
 0003:00001a3c       ___mb_cur_max              1006ca3c     LIBCMT:nlsdata1.obj
 0003:00001a40       ___decimal_point           1006ca40     LIBCMT:nlsdata1.obj
 0003:00001a44       ___decimal_point_length    1006ca44     LIBCMT:nlsdata1.obj
 0003:00001a50       __iob                      1006ca50     LIBCMT:_file.obj
 0003:00001cd0       __timezone                 1006ccd0     LIBCMT:timeset.obj
 0003:00001cd4       __daylight                 1006ccd4     LIBCMT:timeset.obj
 0003:00001cd8       __dstbias                  1006ccd8     LIBCMT:timeset.obj
 0003:00001d60       __tzname                   1006cd60     LIBCMT:timeset.obj
 0003:00001db4       __lpdays                   1006cdb4     LIBCMT:days.obj
 0003:00001de8       __days                     1006cde8     LIBCMT:days.obj
 0003:00001e20       __coninpfh                 1006ce20     LIBCMT:initcon.obj
 0003:00001e24       __confh                    1006ce24     LIBCMT:initcon.obj
 0003:00001e28       __pow10pos                 1006ce28     LIBCMT:constpow.obj
 0003:00001f88       __pow10neg                 1006cf88     LIBCMT:constpow.obj
 0003:00002100       ?theInstance@LexerManager@@0PAV1@A 1006d100     ExternalLexer.obj
 0003:00002104       ?minder@@3VLMMinder@@A     1006d104     ExternalLexer.obj
 0003:00002108       ?base@LexerModule@@1PBV1@B 1006d108     KeyWords.obj
 0003:00002110       ?lmAbaqus@@3VLexerModule@@A 1006d110     LexAbaqus.obj
 0003:00002130       ?lmAda@@3VLexerModule@@A   1006d130     LexAda.obj
 0003:00002150       ?lmAPDL@@3VLexerModule@@A  1006d150     LexAPDL.obj
 0003:00002170       ?lmAsm@@3VLexerModule@@A   1006d170     LexAsm.obj
 0003:00002190       ?lmAns1@@3VLexerModule@@A  1006d190     LexAsn1.obj
 0003:000021b0       ?lmASY@@3VLexerModule@@A   1006d1b0     LexASY.obj
 0003:000021d0       ?lmAU3@@3VLexerModule@@A   1006d1d0     LexAU3.obj
 0003:000021f0       ?lmAVE@@3VLexerModule@@A   1006d1f0     LexAVE.obj
 0003:00002210       ?lmBaan@@3VLexerModule@@A  1006d210     LexBaan.obj
 0003:00002230       ?lmBash@@3VLexerModule@@A  1006d230     LexBash.obj
 0003:00002250       ?lmBlitzBasic@@3VLexerModule@@A 1006d250     LexBasic.obj
 0003:00002270       ?lmPureBasic@@3VLexerModule@@A 1006d270     LexBasic.obj
 0003:00002290       ?lmFreeBasic@@3VLexerModule@@A 1006d290     LexBasic.obj
 0003:000022b0       ?lmBullant@@3VLexerModule@@A 1006d2b0     LexBullant.obj
 0003:000022d0       ?lmCaml@@3VLexerModule@@A  1006d2d0     LexCaml.obj
 0003:000022f0       ?lmClw@@3VLexerModule@@A   1006d2f0     LexCLW.obj
 0003:00002310       ?lmClwNoCase@@3VLexerModule@@A 1006d310     LexCLW.obj
 0003:00002330       ?lmCmake@@3VLexerModule@@A 1006d330     LexCmake.obj
 0003:00002350       ?lmCOBOL@@3VLexerModule@@A 1006d350     LexCOBOL.obj
 0003:00002370       ?lmConf@@3VLexerModule@@A  1006d370     LexConf.obj
 0003:00002390       ?lmCPP@@3VLexerModule@@A   1006d390     LexCPP.obj
 0003:000023b0       ?lmCPPNoCase@@3VLexerModule@@A 1006d3b0     LexCPP.obj
 0003:000023d0       ?lmNncrontab@@3VLexerModule@@A 1006d3d0     LexCrontab.obj
 0003:000023f0       ?lmCsound@@3VLexerModule@@A 1006d3f0     LexCsound.obj
 0003:00002410       ?lmCss@@3VLexerModule@@A   1006d410     LexCSS.obj
 0003:00002430       ?lmD@@3VLexerModule@@A     1006d430     LexD.obj
 0003:00002450       ?lmEiffelkw@@3VLexerModule@@A 1006d450     LexEiffel.obj
 0003:00002470       ?lmEiffel@@3VLexerModule@@A 1006d470     LexEiffel.obj
 0003:00002490       ?lmErlang@@3VLexerModule@@A 1006d490     LexErlang.obj
 0003:000024b0       ?lmESCRIPT@@3VLexerModule@@A 1006d4b0     LexEScript.obj
 0003:000024d0       ?lmFlagShip@@3VLexerModule@@A 1006d4d0     LexFlagship.obj
 0003:000024f0       ?lmForth@@3VLexerModule@@A 1006d4f0     LexForth.obj
 0003:000026a0       ?lmFortran@@3VLexerModule@@A 1006d6a0     LexFortran.obj
 0003:000026c0       ?lmF77@@3VLexerModule@@A   1006d6c0     LexFortran.obj
 0003:000026e0       ?lmGAP@@3VLexerModule@@A   1006d6e0     LexGAP.obj
 0003:00002700       ?lmGui4Cli@@3VLexerModule@@A 1006d700     LexGui4Cli.obj
 0003:00002720       ?lmHaskell@@3VLexerModule@@A 1006d720     LexHaskell.obj
 0003:00002740       ?lmHTML@@3VLexerModule@@A  1006d740     LexHTML.obj
 0003:00002760       ?lmPHPSCRIPT@@3VLexerModule@@A 1006d760     LexHTML.obj
 0003:00002780       ?lmXML@@3VLexerModule@@A   1006d780     LexHTML.obj
 0003:000027a0       ?lmInno@@3VLexerModule@@A  1006d7a0     LexInno.obj
 0003:000027c0       ?lmKix@@3VLexerModule@@A   1006d7c0     LexKix.obj
 0003:000027e0       ?lmLISP@@3VLexerModule@@A  1006d7e0     LexLisp.obj
 0003:00002800       ?lmLout@@3VLexerModule@@A  1006d800     LexLout.obj
 0003:00002820       ?lmLua@@3VLexerModule@@A   1006d820     LexLua.obj
 0003:00002840       ?lmMagikSF@@3VLexerModule@@A 1006d840     LexMagik.obj
 0003:00002860       ?lmOctave@@3VLexerModule@@A 1006d860     LexMatlab.obj
 0003:00002880       ?lmMatlab@@3VLexerModule@@A 1006d880     LexMatlab.obj
 0003:000028a0       ?lmMETAPOST@@3VLexerModule@@A 1006d8a0     LexMetapost.obj
 0003:000028c0       ?lmMMIXAL@@3VLexerModule@@A 1006d8c0     LexMMIXAL.obj
 0003:000028e0       ?lmLot@@3VLexerModule@@A   1006d8e0     LexMPT.obj
 0003:00002900       ?lmMSSQL@@3VLexerModule@@A 1006d900     LexMSSQL.obj
 0003:00002920       ?lmMySQL@@3VLexerModule@@A 1006d920     LexMySQL.obj
 0003:00002940       ?lmNimrod@@3VLexerModule@@A 1006d940     LexNimrod.obj
 0003:00002960       ?lmNsis@@3VLexerModule@@A  1006d960     LexNsis.obj
 0003:00002980       ?lmOpal@@3VLexerModule@@A  1006d980     LexOpal.obj
 0003:000029a4       ?lmErrorList@@3VLexerModule@@A 1006d9a4     LexOthers.obj
 0003:000029c4       ?lmMake@@3VLexerModule@@A  1006d9c4     LexOthers.obj
 0003:000029e4       ?lmNull@@3VLexerModule@@A  1006d9e4     LexOthers.obj
 0003:00002a04       ?lmLatex@@3VLexerModule@@A 1006da04     LexOthers.obj
 0003:00002a24       ?lmDiff@@3VLexerModule@@A  1006da24     LexOthers.obj
 0003:00002a44       ?lmPo@@3VLexerModule@@A    1006da44     LexOthers.obj
 0003:00002a64       ?lmBatch@@3VLexerModule@@A 1006da64     LexOthers.obj
 0003:00002a84       ?lmProps@@3VLexerModule@@A 1006da84     LexOthers.obj
 0003:00002aa4       ?lmPascal@@3VLexerModule@@A 1006daa4     LexPascal.obj
 0003:00002ac4       ?lmPB@@3VLexerModule@@A    1006dac4     LexPB.obj
 0003:00002ae4       ?lmPerl@@3VLexerModule@@A  1006dae4     LexPerl.obj
 0003:00002b04       ?lmPLM@@3VLexerModule@@A   1006db04     LexPLM.obj
 0003:00002b24       ?lmPOV@@3VLexerModule@@A   1006db24     LexPOV.obj
 0003:00002b44       ?lmPowerPro@@3VLexerModule@@A 1006db44     LexPowerPro.obj
 0003:00002b64       ?lmPowerShell@@3VLexerModule@@A 1006db64     LexPowerShell.obj
 0003:00002b84       ?lmProgress@@3VLexerModule@@A 1006db84     LexProgress.obj
 0003:00002ba4       ?lmPS@@3VLexerModule@@A    1006dba4     LexPS.obj
 0003:00002bc4       ?lmPython@@3VLexerModule@@A 1006dbc4     LexPython.obj
 0003:00002be4       ?lmR@@3VLexerModule@@A     1006dbe4     LexR.obj
 0003:00002c04       ?lmREBOL@@3VLexerModule@@A 1006dc04     LexRebol.obj
 0003:00002c24       ?lmRuby@@3VLexerModule@@A  1006dc24     LexRuby.obj
 0003:00002c44       ?lmScriptol@@3VLexerModule@@A 1006dc44     LexScriptol.obj
 0003:00002c64       ?lmSmalltalk@@3VLexerModule@@A 1006dc64     LexSmalltalk.obj
 0003:00002c84       ?lmSML@@3VLexerModule@@A   1006dc84     LexSML.obj
 0003:00002ca4       ?lmSorc@@3VLexerModule@@A  1006dca4     LexSorcus.obj
 0003:00002cc4       ?lmSpecman@@3VLexerModule@@A 1006dcc4     LexSpecman.obj
 0003:00002ce4       ?lmSpice@@3VLexerModule@@A 1006dce4     LexSpice.obj
 0003:00002d04       ?lmSQL@@3VLexerModule@@A   1006dd04     LexSQL.obj
 0003:00002d24       ?lmTACL@@3VLexerModule@@A  1006dd24     LexTACL.obj
 0003:00002d44       ?lmTADS3@@3VLexerModule@@A 1006dd44     LexTADS3.obj
 0003:00002d64       ?lmTAL@@3VLexerModule@@A   1006dd64     LexTAL.obj
 0003:00002d84       ?lmTCL@@3VLexerModule@@A   1006dd84     LexTCL.obj
 0003:00002da4       ?lmTeX@@3VLexerModule@@A   1006dda4     LexTeX.obj
 0003:00002dc4       ?lmVB@@3VLexerModule@@A    1006ddc4     LexVB.obj
 0003:00002de4       ?lmVBScript@@3VLexerModule@@A 1006dde4     LexVB.obj
 0003:00002e04       ?lmVerilog@@3VLexerModule@@A 1006de04     LexVerilog.obj
 0003:00002e24       ?lmVHDL@@3VLexerModule@@A  1006de24     LexVHDL.obj
 0003:00002e44       ?lmYAML@@3VLexerModule@@A  1006de44     LexYAML.obj
 0003:00002e98       ?first@FontCached@@0PAV1@A 1006de98     PlatWin.obj
 0003:00002e9c       ?ItemInset@ListBoxX@@0VPoint@@B 1006de9c     PlatWin.obj
 0003:00002ea4       ?hInstance@ScintillaWin@@0PAUHINSTANCE__@@A 1006dea4     ScintillaWin.obj
 0003:00002ec0       ___fastflag                1006dec0     LIBCMT:fpinit.obj
 0003:00002ec4       __adjust_fdiv              1006dec4     LIBCMT:fpinit.obj
 0003:00002ecc       __aenvptr                  1006decc     LIBCMT:dllcrt0.obj
 0003:00002ed0       __wenvptr                  1006ded0     LIBCMT:dllcrt0.obj
 0003:00002ed4       ___error_mode              1006ded4     LIBCMT:dllcrt0.obj
 0003:00002ed8       ___app_type                1006ded8     LIBCMT:dllcrt0.obj
 0003:0000320c       _gpFlsAlloc                1006e20c     LIBCMT:tidtable.obj
 0003:00003210       _gpFlsGetValue             1006e210     LIBCMT:tidtable.obj
 0003:00003214       _gpFlsSetValue             1006e214     LIBCMT:tidtable.obj
 0003:00003218       _gpFlsFree                 1006e218     LIBCMT:tidtable.obj
 0003:0000321c       ?__pInconsistency@@3P6AXXZA 1006e21c     LIBCMT:hooks.obj
 0003:00003220       ?_pnhHeap@@3P6AHI@ZA       1006e220     LIBCMT:handler.obj
 0003:00003228       ___mbulinfo                1006e228     LIBCMT:mbctype.obj
 0003:00003234       ___mbcodepage              1006e234     LIBCMT:mbctype.obj
 0003:00003238       ___ismbcodepage            1006e238     LIBCMT:mbctype.obj
 0003:0000323c       ___mblcid                  1006e23c     LIBCMT:mbctype.obj
 0003:00003240       ___locale_changed          1006e240     LIBCMT:setlocal.obj
 0003:00003244       ___lc_handle               1006e244     LIBCMT:nlsdata2.obj
 0003:0000325c       ___lc_codepage             1006e25c     LIBCMT:nlsdata2.obj
 0003:00003260       ___lc_collate_cp           1006e260     LIBCMT:nlsdata2.obj
 0003:00003584       ___pPurecall               1006e584     LIBCMT:inithelp.obj
 0003:00003588       ___pInvalidArgHandler      1006e588     LIBCMT:invarg.obj
 0003:00003590       __maxwait                  1006e590     LIBCMT:crtheap.obj
 0003:00003594       __umaskval                 1006e594     LIBCMT:crt0dat.obj
 0003:00003598       __osplatform               1006e598     LIBCMT:crt0dat.obj
 0003:0000359c       __osver                    1006e59c     LIBCMT:crt0dat.obj
 0003:000035a0       __winver                   1006e5a0     LIBCMT:crt0dat.obj
 0003:000035a4       __winmajor                 1006e5a4     LIBCMT:crt0dat.obj
 0003:000035a8       __winminor                 1006e5a8     LIBCMT:crt0dat.obj
 0003:000035ac       ___argc                    1006e5ac     LIBCMT:crt0dat.obj
 0003:000035b0       ___argv                    1006e5b0     LIBCMT:crt0dat.obj
 0003:000035b4       ___wargv                   1006e5b4     LIBCMT:crt0dat.obj
 0003:000035b8       __environ                  1006e5b8     LIBCMT:crt0dat.obj
 0003:000035bc       ___initenv                 1006e5bc     LIBCMT:crt0dat.obj
 0003:000035c0       __wenviron                 1006e5c0     LIBCMT:crt0dat.obj
 0003:000035c4       ___winitenv                1006e5c4     LIBCMT:crt0dat.obj
 0003:000035c8       __pgmptr                   1006e5c8     LIBCMT:crt0dat.obj
 0003:000035cc       __wpgmptr                  1006e5cc     LIBCMT:crt0dat.obj
 0003:000035d0       __exitflag                 1006e5d0     LIBCMT:crt0dat.obj
 0003:000035d4       __C_Termination_Done       1006e5d4     LIBCMT:crt0dat.obj
 0003:000035d8       __C_Exit_Done              1006e5d8     LIBCMT:crt0dat.obj
 0003:000036fc       __crtheap                  1006e6fc     LIBCMT:heapinit.obj
 0003:00003864       ?pArgList@UnDecorator@@0PAVReplicator@@A 1006e864     LIBCMT:undname.obj
 0003:00003868       ?pZNameList@UnDecorator@@0PAVReplicator@@A 1006e868     LIBCMT:undname.obj
 0003:0000386c       ?pTemplateArgList@UnDecorator@@0PAVReplicator@@A 1006e86c     LIBCMT:undname.obj
 0003:00003870       ?gName@UnDecorator@@0PBDB  1006e870     LIBCMT:undname.obj
 0003:00003874       ?name@UnDecorator@@0PBDB   1006e874     LIBCMT:undname.obj
 0003:00003878       ?outputString@UnDecorator@@0PADA 1006e878     LIBCMT:undname.obj
 0003:0000387c       ?maxStringLength@UnDecorator@@0HA 1006e87c     LIBCMT:undname.obj
 0003:00003880       ?disableFlags@UnDecorator@@0KA 1006e880     LIBCMT:undname.obj
 0003:00003884       ?m_pGetParameter@UnDecorator@@0P6APADJ@ZA 1006e884     LIBCMT:undname.obj
 0003:00003888       ?fExplicitTemplateParams@UnDecorator@@0_NA 1006e888     LIBCMT:undname.obj
 0003:00003889       ?fGetTemplateArgumentList@UnDecorator@@0_NA 1006e889     LIBCMT:undname.obj
 0003:0000388c       ___sbh_pHeaderDefer        1006e88c     LIBCMT:sbheap.obj
 0003:00003890       __newmode                  1006e890     LIBCMT:_newmode.obj
 0003:00003898       ___lconv_static_null       1006e898     LIBCMT:lconv.obj
 0003:000038b0       __cflush                   1006e8b0     LIBCMT:_file.obj
 0003:000038c0       __outputformat             1006e8c0     LIBCMT:outputformat.obj
 0003:00003980       __stdbuf                   1006e980     LIBCMT:_sftbuf.obj
 0003:00003988       ___piob                    1006e988     <common>
 0003:000039a0       __bufin                    1006e9a0     <common>
 0003:000049a0       __nstream                  1006f9a0     <common>
 0003:000049a4       ___sbh_cntHeaderList       1006f9a4     <common>
 0003:000049a8       ___sbh_pHeaderList         1006f9a8     <common>
 0003:000049ac       ___sbh_threshold           1006f9ac     <common>
 0003:000049b0       ___sbh_pHeaderScan         1006f9b0     <common>
 0003:000049b4       ___sbh_sizeHeaderList      1006f9b4     <common>
 0003:000049b8       ___sbh_indGroupDefer       1006f9b8     <common>
 0003:000049bc       __debugger_hook_dummy      1006f9bc     <common>
 0003:000049c0       ___active_heap             1006f9c0     <common>
 0003:000049c4       __nhandle                  1006f9c4     <common>
 0003:000049e0       ___pioinfo                 1006f9e0     <common>
 0003:00004ae0       ___env_initialized         1006fae0     <common>
 0003:00004ae4       ___onexitend               1006fae4     <common>
 0003:00004ae8       ___onexitbegin             1006fae8     <common>
 0003:00004aec       ___mbctype_initialized     1006faec     <common>
 0003:00004af0       ___dyn_tls_init_callback   1006faf0     <common>
 0003:00004af4       ___use_sse2_mathfcns       1006faf4     <common>
 0003:00004af8       ___sse2_available          1006faf8     <common>
 0003:00004afc       __acmdln                   1006fafc     <common>

 entry point at        0001:00051ab0

 Static symbols

 0001:000004e8       ?IsArrowCharacter@@YA_ND@Z 100014e8 f   CallTip.obj
 0001:000027d3       ?IsPunctuation@@YA_ND@Z    100037d3 f   Document.obj
 0001:000027f1       ?IsADigit@@YA_ND@Z         100037f1 f   Document.obj
 0001:0000280f       ?IsLowerCase@@YA_ND@Z      1000380f f   Document.obj
 0001:0000282d       ?IsUpperCase@@YA_ND@Z      1000382d f   Document.obj
 0001:000029cc       ?IsSubordinate@@YA_NHH@Z   100039cc f   Document.obj
 0001:00002b85       ?BytesFromLead@@YAHH@Z     10003b85 f   Document.obj
 0001:00002dd8       ?isindentchar@@YA_ND@Z     10003dd8 f   Document.obj
 0001:00002ded       ?NextTab@@YAHHH@Z          10003ded f   Document.obj
 0001:00002df9       ?CreateIndentation@@YAXPADHHH_N@Z 10003df9 f   Document.obj
 0001:00003a81       ?BraceOpposite@@YADD@Z     10004a81 f   Document.obj
 0001:00005f5c       ?CanDeferToLastStep@@YA_NABVDocModification@@@Z 10006f5c f   Editor.obj
 0001:00005f74       ?CanEliminate@@YA_NABVDocModification@@@Z 10006f74 f   Editor.obj
 0001:00005f82       ?IsLastStep@@YA_NABVDocModification@@@Z 10006f82 f   Editor.obj
 0001:0000676c       ?FoldForthDoc@@YAXIHHQAPAVWordList@@AAVAccessor@@@Z 1000776c f   Editor.obj
 0001:0000676c       ?CharPtrFromSPtr@@YAPADJ@Z 1000776c f   Editor.obj
 0001:000068e9       ?istrlen@@YAHPBD@Z         100078e9 f   Editor.obj
 0001:0000693d       ?WidthStyledText@@YAHPAVSurface@@AAVViewStyle@@HPBDPBEI@Z 1000793d f   Editor.obj
 0001:000069a6       ?WidestLineWidth@@YAHPAVSurface@@AAVViewStyle@@HABUStyledText@@@Z 100079a6 f   Editor.obj
 0001:00007246       ?IsTrailByte@@YA_NH@Z      10008246 f   Editor.obj
 0001:00007246       ?GoodTrailByte@@YA_NH@Z    10008246 f   Editor.obj
 0001:00007246       ?IsTrailByte@@YA_NH@Z      10008246 f   Editor.obj
 0001:00007482       ?SimpleAlphaRectangle@@YAXPAVSurface@@VPRectangle@@VColourAllocated@@H@Z 10008482 f   Editor.obj
 0001:00008300       ?Close@@YA_NVPoint@@0@Z    10009300 f   Editor.obj
 0001:000089ce       ?ValidMargin@@YA_NK@Z      100099ce f   Editor.obj
 0001:0001451b       ?IsAKeywordChar@@YA_NH@Z   1001551b f   LexAbaqus.obj
 0001:0001453f       ?IsASetChar@@YA_NH@Z       1001553f f   LexAbaqus.obj
 0001:00014568       ?ColouriseABAQUSDoc@@YAXIHHQAPAVWordList@@AAVAccessor@@@Z 10015568 f   LexAbaqus.obj
 0001:000148a0       ?IsSpace@@YA_NH@Z          100158a0 f   LexAbaqus.obj
 0001:000148b8       ?IsIdentifier@@YA_NH@Z     100158b8 f   LexAbaqus.obj
 0001:000148d0       ?LineEnd@@YAHHAAVAccessor@@@Z 100158d0 f   LexAbaqus.obj
 0001:000148fa       ?LineStart@@YAHHAAVAccessor@@@Z 100158fa f   LexAbaqus.obj
 0001:00014904       ?LineType@@YAHHAAVAccessor@@@Z 10015904 f   LexAbaqus.obj
 0001:00014ad1       ?SafeSetLevel@@YAXHHAAVAccessor@@@Z 10015ad1 f   LexAbaqus.obj
 0001:00014afe       ?FoldABAQUSDoc@@YAXIHHQAPAVWordList@@AAVAccessor@@@Z 10015afe f   LexAbaqus.obj
 0001:00014d87       ?ColouriseContext@@YAXAAVStyleContext@@DH@Z 10015d87 f   LexAda.obj
 0001:00014dbe       ?ColouriseComment@@YAXAAVStyleContext@@AA_N@Z 10015dbe f   LexAda.obj
 0001:00014dd7       ?ColouriseDelimiter@@YAXAAVStyleContext@@AA_N@Z 10015dd7 f   LexAda.obj
 0001:00014df3       ?ColouriseString@@YAXAAVStyleContext@@AA_N@Z 10015df3 f   LexAda.obj
 0001:00014e14       ?IsSeparatorOrDelimiterCharacter@@YA_NH@Z 10015e14 f   LexAda.obj
 0001:00014e14       ?IsSeparatorOrDelimiterCharacter@@YA_NH@Z 10015e14 f   LexAda.obj
 0001:00014e3f       ?IsValidNumber@@YA_NABVSString@@@Z 10015e3f f   LexAda.obj
 0001:00015075       ?ColouriseCharacter@@YAXAAVStyleContext@@AA_N@Z 10016075 f   LexAda.obj
 0001:0001509d       ?ColouriseNumber@@YAXAAVStyleContext@@AA_N@Z 1001609d f   LexAda.obj
 0001:00015177       ?IsValidIdentifier@@YA_NABVSString@@@Z 10016177 f   LexAda.obj
 0001:0001521e       ?ColouriseLabel@@YAXAAVStyleContext@@AAVWordList@@AA_N@Z 1001621e f   LexAda.obj
 0001:000152fd       ?ColouriseWord@@YAXAAVStyleContext@@AAVWordList@@AA_N@Z 100162fd f   LexAda.obj
 0001:000153d2       ?ColouriseDocument@@YAXIHHQAPAVWordList@@AAVAccessor@@@Z 100163d2 f   LexAda.obj
 0001:00015538       ?IsAnOperator@@YA_ND@Z     10016538 f   LexAPDL.obj
 0001:0001558a       ?ColouriseAPDLDoc@@YAXIHHQAPAVWordList@@AAVAccessor@@@Z 1001658a f   LexAPDL.obj
 0001:00015878       ?IsSpace@@YA_NH@Z          10016878 f   LexAPDL.obj
 0001:00015890       ?IsIdentifier@@YA_NH@Z     10016890 f   LexAPDL.obj
 0001:000158a8       ?LowerCase@@YAHH@Z         100168a8 f   LexAPDL.obj
 0001:000158a8       ?LowerCase@@YAHH@Z         100168a8 f   LexAPDL.obj
 0001:000158a8       ?LowerCase@@YAHH@Z         100168a8 f   LexAPDL.obj
 0001:000158b4       ?CheckAPDLFoldPoint@@YAHPBDAAH@Z 100168b4 f   LexAPDL.obj
 0001:0001591a       ?FoldAPDLDoc@@YAXIHHQAPAVWordList@@AAVAccessor@@@Z 1001691a f   LexAPDL.obj
 0001:00015ac8       ?IsAsmOperator@@YA_NH@Z    10016ac8 f   LexAsm.obj
 0001:00015b3b       ?ColouriseAsmDoc@@YAXIHHQAPAVWordList@@AAVAccessor@@@Z 10016b3b f   LexAsm.obj
 0001:00015e2b       ?isAsn1Number@@YA_NH@Z     10016e2b f   LexAsn1.obj
 0001:00015e37       ?isAsn1Letter@@YA_NH@Z     10016e37 f   LexAsn1.obj
 0001:00015e50       ?isAsn1Char@@YA_NH@Z       10016e50 f   LexAsn1.obj
 0001:00015e72       ?ColouriseAsn1Doc@@YAXIHHQAPAVWordList@@AAVAccessor@@@Z 10016e72 f   LexAsn1.obj
 0001:00016105       ?FoldAsn1Doc@@YAXIHHQAPAVWordList@@AAVAccessor@@@Z 10017105 f   LexAsn1.obj
 0001:000161f9       ?ParseASYWord@@YAHIAAVAccessor@@PAD@Z 100171f9 f   LexASY.obj
 0001:00016251       ?IsASYDrawingLine@@YA_NHAAVAccessor@@@Z 10017251 f   LexASY.obj
 0001:00016313       ?FoldAsyDoc@@YAXIHHQAPAVWordList@@AAVAccessor@@@Z 10017313 f   LexASY.obj
 0001:000165cc       ?ColouriseAsyDoc@@YAXIHHQAPAVWordList@@AAVAccessor@@@Z 100175cc f   LexASY.obj
 0001:000168f3       ?IsAWordStart@@YA_NH@Z     100178f3 f   LexAU3.obj
 0001:00016926       ?IsAOperator@@YA_ND@Z      10017926 f   LexAU3.obj
 0001:00016985       ?GetSendKey@@YAHPBDPAD@Z   10017985 f   LexAU3.obj
 0001:00016a8e       ?IsContinuationLine@@YA_NIAAVAccessor@@@Z 10017a8e f   LexAU3.obj
 0001:00016ae9       ?ColouriseAU3Doc@@YAXIHHQAPAVWordList@@AAVAccessor@@@Z 10017ae9 f   LexAU3.obj
 0001:000176ee       ?IsStreamCommentStyle@@YA_NH@Z 100186ee f   LexAU3.obj
 0001:00017701       ?GetStyleFirstWord@@YAHIAAVAccessor@@@Z 10018701 f   LexAU3.obj
 0001:00017745       ?FoldAU3Doc@@YAXIHHQAPAVWordList@@AAVAccessor@@@Z 10018745 f   LexAU3.obj
 0001:00017dd2       ?ColouriseAveDoc@@YAXIHHQAPAVWordList@@AAVAccessor@@@Z 10018dd2 f   LexAVE.obj
 0001:0001809c       ?FoldAveDoc@@YAXIHHQAPAVWordList@@AAVAccessor@@@Z 1001909c f   LexAVE.obj
 0001:00018361       ?IsAWordChar@@YA_NH@Z      10019361 f   LexBaan.obj
 0001:0001838f       ?ColouriseBaanDoc@@YAXIHHQAPAVWordList@@AAVAccessor@@@Z 1001938f f   LexBaan.obj
 0001:0001863c       ?FoldBaanDoc@@YAXIHHQAPAVWordList@@AAVAccessor@@@Z 1001963c f   LexBaan.obj
 0001:000188aa       ?FoldBashDoc@@YAXIHHQAPAVWordList@@AAVAccessor@@@Z 100198aa f   LexBash.obj
 0001:00018a7e       ?ColouriseBashDoc@@YAXIHHQAPAVWordList@@AAVAccessor@@@Z 10019a7e f   LexBash.obj
 0001:000193d2       ?IsSpace@@YA_NH@Z          1001a3d2 f   LexBasic.obj
 0001:000193ea       ?IsOperator@@YA_NH@Z       1001a3ea f   LexBasic.obj
 0001:00019402       ?IsIdentifier@@YA_NH@Z     1001a402 f   LexBasic.obj
 0001:0001941a       ?IsDigit@@YA_NH@Z          1001a41a f   LexBasic.obj
 0001:00019432       ?IsHexDigit@@YA_NH@Z       1001a432 f   LexBasic.obj
 0001:0001944a       ?IsBinDigit@@YA_NH@Z       1001a44a f   LexBasic.obj
 0001:00019462       ?ColouriseBasicDoc@@YAXIHHQAPAVWordList@@AAVAccessor@@D@Z 1001a462 f   LexBasic.obj
 0001:000196fe       ?CheckBlitzFoldPoint@@YAHPBDAAH@Z 1001a6fe f   LexBasic.obj
 0001:0001975f       ?CheckPureFoldPoint@@YAHPBDAAH@Z 1001a75f f   LexBasic.obj
 0001:00019808       ?CheckFreeFoldPoint@@YAHPBDAAH@Z 1001a808 f   LexBasic.obj
 0001:0001988b       ?FoldBasicDoc@@YAXIHAAVAccessor@@P6AHPBDAAH@Z@Z 1001a88b f   LexBasic.obj
 0001:00019a1f       ?ColourisePureBasicDoc@@YAXIHHQAPAVWordList@@AAVAccessor@@@Z 1001aa1f f   LexBasic.obj
 0001:00019a1f       ?ColouriseBlitzBasicDoc@@YAXIHHQAPAVWordList@@AAVAccessor@@@Z 1001aa1f f   LexBasic.obj
 0001:00019a3d       ?ColouriseFreeBasicDoc@@YAXIHHQAPAVWordList@@AAVAccessor@@@Z 1001aa3d f   LexBasic.obj
 0001:00019a5b       ?FoldBlitzBasicDoc@@YAXIHHQAPAVWordList@@AAVAccessor@@@Z 1001aa5b f   LexBasic.obj
 0001:00019a76       ?FoldPureBasicDoc@@YAXIHHQAPAVWordList@@AAVAccessor@@@Z 1001aa76 f   LexBasic.obj
 0001:00019a91       ?FoldFreeBasicDoc@@YAXIHHQAPAVWordList@@AAVAccessor@@@Z 1001aa91 f   LexBasic.obj
 0001:00019ad2       ?classifyWordBullant@@YAHIIAAVWordList@@AAVAccessor@@@Z 1001aad2 f   LexBullant.obj
 0001:00019c9c       ?ColouriseBullantDoc@@YAXIHHQAPAVWordList@@AAVAccessor@@@Z 1001ac9c f   LexBullant.obj
 0001:0001a7df       ?CharacterUpper@@YADD@Z    1001b7df f   LexCLW.obj
 0001:0001a7ed       ?StringUpper@@YAXPAD@Z     1001b7ed f   LexCLW.obj
 0001:0001a928       ?ColouriseClarionDoc@@YAXIHHQAPAVWordList@@AAVAccessor@@_N@Z 1001b928 f   LexCLW.obj
 0001:0001af6c       ?ColouriseClarionDocSensitive@@YAXIHHQAPAVWordList@@AAVAccessor@@@Z 1001bf6c f   LexCLW.obj
 0001:0001af8a       ?ColouriseClarionDocInsensitive@@YAXIHHQAPAVWordList@@AAVAccessor@@@Z 1001bf8a f   LexCLW.obj
 0001:0001afa8       ?FillBuffer@@YAXIIAAVAccessor@@PADI@Z 1001bfa8 f   LexCLW.obj
 0001:0001b001       ?ClassifyClarionFoldPoint@@YAHHPBD@Z 1001c001 f   LexCLW.obj
 0001:0001b2fa       ?FoldClarionDoc@@YAXIHHQAPAVWordList@@AAVAccessor@@@Z 1001c2fa f   LexCLW.obj
 0001:0001b498       ?isNsisChar@@YA_ND@Z       1001c498 f   LexCmake.obj
 0001:0001b498       ?isCmakeChar@@YA_ND@Z      1001c498 f   LexCmake.obj
 0001:0001b4c8       ?isCmakeLetter@@YA_ND@Z    1001c4c8 f   LexCmake.obj
 0001:0001b4c8       ?isNsisLetter@@YA_ND@Z     1001c4c8 f   LexCmake.obj
 0001:0001b4dd       ?CmakeNextLineHasElse@@YA_NIIAAVAccessor@@@Z 1001c4dd f   LexCmake.obj
 0001:0001b53f       ?calculateFoldCmake@@YAHIIHAAVAccessor@@_N@Z 1001c53f f   LexCmake.obj
 0001:0001b6af       ?classifyWordCmake@@YAHIIQAPAVWordList@@AAVAccessor@@@Z 1001c6af f   LexCmake.obj
 0001:0001b8fe       ?ColouriseCmakeDoc@@YAXIHHQAPAVWordList@@AAVAccessor@@@Z 1001c8fe f   LexCmake.obj
 0001:0001bd49       ?FoldCmakeDoc@@YAXIHHQAPAVWordList@@AAVAccessor@@@Z 1001cd49 f   LexCmake.obj
 0001:0001bf46       ?CountBits@@YAHH@Z         1001cf46 f   LexCOBOL.obj
 0001:0001bf5c       ?ColourTo@@YAXAAVAccessor@@II@Z 1001cf5c f   LexCOBOL.obj
 0001:0001bf6a       ?classifyWordCOBOL@@YAHIIQAPAVWordList@@AAVAccessor@@HPA_N@Z 1001cf6a f   LexCOBOL.obj
 0001:0001c0f9       ?ColouriseCOBOLDoc@@YAXIHHQAPAVWordList@@AAVAccessor@@@Z 1001d0f9 f   LexCOBOL.obj
 0001:0001c4de       ?FoldCOBOLDoc@@YAXIHHQAPAVWordList@@AAVAccessor@@@Z 1001d4de f   LexCOBOL.obj
 0001:0001c6c5       ?ColouriseConfDoc@@YAXIHHQAPAVWordList@@AAVAccessor@@@Z 1001d6c5 f   LexConf.obj
 0001:0001ca52       ?IsSpaceEquiv@@YA_NH@Z     1001da52 f   LexCPP.obj
 0001:0001ca6d       ?FollowsPostfixOperator@@YA_NAAVStyleContext@@AAVAccessor@@@Z 1001da6d f   LexCPP.obj
 0001:0001caa8       ?FoldCppDoc@@YAXIHHQAPAVWordList@@AAVAccessor@@@Z 1001daa8 f   LexCPP.obj
 0001:0001cd7b       ?ColouriseCppDoc@@YAXIHHQAPAVWordList@@AAVAccessor@@_N@Z 1001dd7b f   LexCPP.obj
 0001:0001d5ff       ?ColouriseCppDocSensitive@@YAXIHHQAPAVWordList@@AAVAccessor@@@Z 1001e5ff f   LexCPP.obj
 0001:0001d61d       ?ColouriseCppDocInsensitive@@YAXIHHQAPAVWordList@@AAVAccessor@@@Z 1001e61d f   LexCPP.obj
 0001:0001d63b       ?ColouriseNncrontabDoc@@YAXIHHQAPAVWordList@@AAVAccessor@@@Z 1001e63b f   LexCrontab.obj
 0001:0001da13       ?IsAWordChar@@YA_NH@Z      1001ea13 f   LexCsound.obj
 0001:0001da13       ?IsAWordChar@@YA_NH@Z      1001ea13 f   LexCsound.obj
 0001:0001da3c       ?IsCsoundOperator@@YA_ND@Z 1001ea3c f   LexCsound.obj
 0001:0001daaa       ?ColouriseCsoundDoc@@YAXIHHQAPAVWordList@@AAVAccessor@@@Z 1001eaaa f   LexCsound.obj
 0001:0001dd36       ?FoldCsoundInstruments@@YAXIHHQAPAVWordList@@AAVAccessor@@@Z 1001ed36 f   LexCsound.obj
 0001:0001def9       ?IsAWordChar@@YA_NI@Z      1001eef9 f   LexCSS.obj
 0001:0001df9a       ?ColouriseCssDoc@@YAXIHHQAPAVWordList@@AAVAccessor@@@Z 1001ef9a f   LexCSS.obj
 0001:0001e6c9       ?FoldCSSDoc@@YAXIHHQAPAVWordList@@AAVAccessor@@@Z 1001f6c9 f   LexCSS.obj
 0001:0001e84b       ?IsWordStart@@YA_NH@Z      1001f84b f   LexD.obj
 0001:0001e868       ?IsWord@@YA_NH@Z           1001f868 f   LexD.obj
 0001:0001e885       ?IsDoxygen@@YA_NH@Z        1001f885 f   LexD.obj
 0001:0001e8d5       ?IsStringSuffix@@YA_NH@Z   1001f8d5 f   LexD.obj
 0001:0001e8eb       ?ColouriseDoc@@YAXIHHQAPAVWordList@@AAVAccessor@@_N@Z 1001f8eb f   LexD.obj
 0001:0001ef37       ?IsStreamCommentStyle@@YA_NH@Z 1001ff37 f   LexD.obj
 0001:0001ef52       ?FoldDoc@@YAXIHHAAVAccessor@@@Z 1001ff52 f   LexD.obj
 0001:0001f156       ?FoldDDoc@@YAXIHHQAPAVWordList@@AAVAccessor@@@Z 10020156 f   LexD.obj
 0001:0001f170       ?ColouriseDDoc@@YAXIHHQAPAVWordList@@AAVAccessor@@@Z 10020170 f   LexD.obj
 0001:0001f190       ?isEiffelOperator@@YA_NI@Z 10020190 f   LexEiffel.obj
 0001:0001f20f       ?ColouriseEiffelDoc@@YAXIHHQAPAVWordList@@AAVAccessor@@@Z 1002020f f   LexEiffel.obj
 0001:0001f3f1       ?IsEiffelComment@@YA_NAAVAccessor@@HH@Z 100203f1 f   LexEiffel.obj
 0001:0001f423       ?FoldEiffelDocIndent@@YAXIHHQAPAVWordList@@AAVAccessor@@@Z 10020423 f   LexEiffel.obj
 0001:0001f54d       ?FoldEiffelDocKeyWords@@YAXIHHQAPAVWordList@@AAVAccessor@@@Z 1002054d f   LexEiffel.obj
 0001:0001f7e2       ?is_radix@@YAHHH@Z         100207e2 f   LexErlang.obj
 0001:0001f81c       ?ColouriseErlangDoc@@YAXIHHQAPAVWordList@@AAVAccessor@@@Z 1002081c f   LexErlang.obj
 0001:0001fdcc       ?ClassifyFoldPointErlang@@YAHAAVAccessor@@HH@Z 10020dcc f   LexErlang.obj
 0001:0001fe48       ?FoldErlangDoc@@YAXIHHPAPAVWordList@@AAVAccessor@@@Z 10020e48 f   LexErlang.obj
 0001:0001ffbb       ?ColouriseESCRIPTDoc@@YAXIHHQAPAVWordList@@AAVAccessor@@@Z 10020fbb f   LexEScript.obj
 0001:000202bc       ?classifyFoldPointESCRIPT@@YAHPBD0@Z 100212bc f   LexEScript.obj
 0001:00020424       ?IsStreamCommentStyle@@YA_NH@Z 10021424 f   LexEScript.obj
 0001:0002043a       ?FoldESCRIPTDoc@@YAXIHHQAPAVWordList@@AAVAccessor@@@Z 1002143a f   LexEScript.obj
 0001:000206b8       ?IsVBComment@@YA_NAAVAccessor@@HH@Z 100216b8 f   LexFlagship.obj
 0001:000206b8       ?IsFlagShipComment@@YA_NAAVAccessor@@HH@Z 100216b8 f   LexFlagship.obj
 0001:000206d7       ?IsAWordChar@@YA_NH@Z      100216d7 f   LexFlagship.obj
 0001:000206f9       ?ColouriseFlagShipDoc@@YAXIHHQAPAVWordList@@AAVAccessor@@@Z 100216f9 f   LexFlagship.obj
 0001:00020a6d       ?IsASpaceChar@@YA_NH@Z     10021a6d f   LexForth.obj
 0001:00020a8c       ?ColouriseForthDoc@@YAXIHHQAPAVWordList@@AAVAccessor@@@Z 10021a8c f   LexForth.obj
 0001:00020e83       ?IsAWordChar@@YA_NH@Z      10021e83 f   LexFortran.obj
 0001:00020f4a       ?ColouriseFortranDoc@@YAXIHHQAPAVWordList@@AAVAccessor@@_N@Z 10021f4a f   LexFortran.obj
 0001:0002157e       ?classifyFoldPointFortran@@YAHPBD0D@Z 1002257e f   LexFortran.obj
 0001:00021871       ?FoldFortranDoc@@YAXIHHAAVAccessor@@_N@Z 10022871 f   LexFortran.obj
 0001:00021d81       ?ColouriseFortranDocFreeFormat@@YAXIHHQAPAVWordList@@AAVAccessor@@@Z 10022d81 f   LexFortran.obj
 0001:00021d9f       ?ColouriseFortranDocFixFormat@@YAXIHHQAPAVWordList@@AAVAccessor@@@Z 10022d9f f   LexFortran.obj
 0001:00021dbd       ?FoldFortranDocFreeFormat@@YAXIHHQAPAVWordList@@AAVAccessor@@@Z 10022dbd f   LexFortran.obj
 0001:00021dda       ?FoldFortranDocFixFormat@@YAXIHHQAPAVWordList@@AAVAccessor@@@Z 10022dda f   LexFortran.obj
 0001:00021df7       ?IsGAPOperator@@YA_ND@Z    10022df7 f   LexGAP.obj
 0001:00021e6a       ?GetRange@@YAXIIAAVAccessor@@PADI@Z 10022e6a f   LexGAP.obj
 0001:00021e6a       ?getRange@@YAXIIAAVAccessor@@PADI@Z 10022e6a f   LexGAP.obj
 0001:00021eb9       ?ColouriseGAPDoc@@YAXIHHQAPAVWordList@@AAVAccessor@@@Z 10022eb9 f   LexGAP.obj
 0001:000221d8       ?ClassifyFoldPointGAP@@YAHPBD@Z 100231d8 f   LexGAP.obj
 0001:0002226f       ?FoldGAPDoc@@YAXIHHPAPAVWordList@@AAVAccessor@@@Z 1002326f f   LexGAP.obj
 0001:0002245d       ?colorFirstWord@@YAXQAPAVWordList@@AAVAccessor@@PAVStyleContext@@PADHH@Z 1002345d f   LexGui4Cli.obj
 0001:000225e7       ?ColouriseGui4CliDoc@@YAXIHHQAPAVWordList@@AAVAccessor@@@Z 100235e7 f   LexGui4Cli.obj
 0001:000228ac       ?FoldGui4Cli@@YAXIHHQAPAVWordList@@AAVAccessor@@@Z 100238ac f   LexGui4Cli.obj
 0001:00022a15       ?ColorizeHaskellDoc@@YAXIHHQAPAVWordList@@AAVAccessor@@@Z 10023a15 f   LexHaskell.obj
 0001:00022e32       ?GetTextSegment@@YAXAAVAccessor@@IIPADI@Z 10023e32 f   LexHTML.obj
 0001:00022e85       ?segIsScriptingIndicator@@YA?AW4script_type@@AAVAccessor@@IIW41@@Z 10023e85 f   LexHTML.obj
 0001:00022f93       ?PrintScriptingIndicatorOffset@@YAHAAVAccessor@@II@Z 10023f93 f   LexHTML.obj
 0001:00022fe1       ?ScriptOfState@@YA?AW4script_type@@H@Z 10023fe1 f   LexHTML.obj
 0001:00023029       ?statePrintForState@@YAHHW4script_mode@@@Z 10024029 f   LexHTML.obj
 0001:0002305a       ?stateForPrintState@@YAHH@Z 1002405a f   LexHTML.obj
 0001:0002307a       ?IsNumber@@YA_NIAAVAccessor@@@Z 1002407a f   LexHTML.obj
 0001:000230b8       ?isStringState@@YA_NH@Z    100240b8 f   LexHTML.obj
 0001:0002312b       ?classifyAttribHTML@@YAXIIAAVWordList@@AAVAccessor@@@Z 1002412b f   LexHTML.obj
 0001:000231a6       ?classifyTagHTML@@YAHIIAAVWordList@@AAVAccessor@@AA_N_N33@Z 100241a6 f   LexHTML.obj
 0001:000232ef       ?classifyWordHTJS@@YAXIIAAVWordList@@AAVAccessor@@W4script_mode@@@Z 100242ef f   LexHTML.obj
 0001:000233a4       ?classifyWordHTVB@@YAHIIAAVWordList@@AAVAccessor@@W4script_mode@@@Z 100243a4 f   LexHTML.obj
 0001:00023453       ?classifyWordHTPy@@YAXIIAAVWordList@@AAVAccessor@@PADW4script_mode@@@Z 10024453 f   LexHTML.obj
 0001:00023554       ?classifyWordHTPHP@@YAXIIAAVWordList@@AAVAccessor@@@Z 10024554 f   LexHTML.obj
 0001:000235f0       ?isWordHSGML@@YA_NIIAAVWordList@@AAVAccessor@@@Z 100245f0 f   LexHTML.obj
 0001:00023661       ?isWordCdata@@YA_NIIAAVAccessor@@@Z 10024661 f   LexHTML.obj
 0001:000236d5       ?StateForScript@@YAHW4script_type@@@Z 100246d5 f   LexHTML.obj
 0001:00023705       ?issgmlwordchar@@YA_NH@Z   10024705 f   LexHTML.obj
 0001:0002373b       ?IsPhpWordStart@@YA_NH@Z   1002473b f   LexHTML.obj
 0001:0002375f       ?IsPhpWordChar@@YA_NH@Z    1002475f f   LexHTML.obj
 0001:0002377c       ?InTagState@@YA_NH@Z       1002477c f   LexHTML.obj
 0001:000237b0       ?IsCommentState@@YA_NH@Z   100247b0 f   LexHTML.obj
 0001:000237c5       ?IsScriptCommentState@@YA_NH@Z 100247c5 f   LexHTML.obj
 0001:000237ea       ?isLineEnd@@YA_NH@Z        100247ea f   LexHTML.obj
 0001:000237ff       ?isOKBeforeRE@@YA_NH@Z     100247ff f   LexHTML.obj
 0001:00023815       ?isPHPStringState@@YA_NH@Z 10024815 f   LexHTML.obj
 0001:00023830       ?FindPhpStringDelimiter@@YAHPADHHHAAVAccessor@@AA_N@Z 10024830 f   LexHTML.obj
 0001:00023984       ?ColouriseHyperTextDoc@@YAXIHHQAPAVWordList@@AAVAccessor@@_N@Z 10024984 f   LexHTML.obj
 0001:00025fc8       ?ColouriseXMLDoc@@YAXIHHQAPAVWordList@@AAVAccessor@@@Z 10026fc8 f   LexHTML.obj
 0001:00025fe6       ?ColouriseHTMLDoc@@YAXIHHQAPAVWordList@@AAVAccessor@@@Z 10026fe6 f   LexHTML.obj
 0001:00026004       ?ColourisePHPScriptDoc@@YAXIHHQAPAVWordList@@AAVAccessor@@@Z 10027004 f   LexHTML.obj
 0001:0002601a       ?ColouriseInnoDoc@@YAXIHHQAPAVWordList@@AAVAccessor@@@Z 1002701a f   LexInno.obj
 0001:000264d6       ?FoldInnoDoc@@YAXIHHQAPAVWordList@@AAVAccessor@@@Z 100274d6 f   LexInno.obj
 0001:000265c8       ?IsAWordChar@@YA_NH@Z      100275c8 f   LexKix.obj
 0001:000265e5       ?IsOperator@@YA_NH@Z       100275e5 f   LexKix.obj
 0001:00026619       ?ColouriseKixDoc@@YAXIHHQAPAVWordList@@AAVAccessor@@@Z 10027619 f   LexKix.obj
 0001:00026845       ?isLispoperator@@YA_ND@Z   10027845 f   LexLisp.obj
 0001:00026886       ?isLispwordstart@@YA_ND@Z  10027886 f   LexLisp.obj
 0001:000268c0       ?classifyWordLisp@@YAXIIAAVWordList@@0AAVAccessor@@@Z 100278c0 f   LexLisp.obj
 0001:000269ad       ?ColouriseLispDoc@@YAXIHHQAPAVWordList@@AAVAccessor@@@Z 100279ad f   LexLisp.obj
 0001:00026e2a       ?FoldLispDoc@@YAXIHHQAPAVWordList@@AAVAccessor@@@Z 10027e2a f   LexLisp.obj
 0001:00026f79       ?IsAWordChar@@YA_NH@Z      10027f79 f   LexLout.obj
 0001:00026f9d       ?IsAnOther@@YA_NH@Z        10027f9d f   LexLout.obj
 0001:0002703a       ?ColouriseLoutDoc@@YAXIHHQAPAVWordList@@AAVAccessor@@@Z 1002803a f   LexLout.obj
 0001:0002729d       ?FoldLoutDoc@@YAXIHHQAPAVWordList@@AAVAccessor@@@Z 1002829d f   LexLout.obj
 0001:00027486       ?LongDelimCheck@@YAHAAVStyleContext@@@Z 10028486 f   LexLua.obj
 0001:000274b7       ?FoldLuaDoc@@YAXIHHQAPAVWordList@@AAVAccessor@@@Z 100284b7 f   LexLua.obj
 0001:00027732       ?ColouriseLuaDoc@@YAXIHHQAPAVWordList@@AAVAccessor@@@Z 10028732 f   LexLua.obj
 0001:00027e01       ?IsAlpha@@YA_NH@Z          10028e01 f   LexMagik.obj
 0001:00027e20       ?IsAlNum@@YA_NH@Z          10028e20 f   LexMagik.obj
 0001:00027e3f       ?ColouriseMagikDoc@@YAXIHHQAPAVWordList@@AAVAccessor@@@Z 10028e3f f   LexMagik.obj
 0001:00028245       ?IsFoldingContainer@@YAHAAVWordList@@PAD@Z 10029245 f   LexMagik.obj
 0001:00028292       ?FoldMagikDoc@@YAXIHHQAPAVWordList@@AAVAccessor@@@Z 10029292 f   LexMagik.obj
 0001:0002849c       ?IsMatlabCommentChar@@YA_NH@Z 1002949c f   LexMatlab.obj
 0001:000284a7       ?IsOctaveCommentChar@@YA_NH@Z 100294a7 f   LexMatlab.obj
 0001:000284bc       ?IsMatlabComment@@YA_NAAVAccessor@@HH@Z 100294bc f   LexMatlab.obj
 0001:000284e7       ?IsOctaveComment@@YA_NAAVAccessor@@HH@Z 100294e7 f   LexMatlab.obj
 0001:00028512       ?ColouriseMatlabOctaveDoc@@YAXIHHQAPAVWordList@@AAVAccessor@@P6A_NH@Z@Z 10029512 f   LexMatlab.obj
 0001:000287b5       ?ColouriseMatlabDoc@@YAXIHHQAPAVWordList@@AAVAccessor@@@Z 100297b5 f   LexMatlab.obj
 0001:000287d6       ?ColouriseOctaveDoc@@YAXIHHQAPAVWordList@@AAVAccessor@@@Z 100297d6 f   LexMatlab.obj
 0001:000287f7       ?FoldMatlabOctaveDoc@@YAXIHHQAPAVWordList@@AAVAccessor@@P6A_N1HH@Z@Z 100297f7 f   LexMatlab.obj
 0001:0002890c       ?FoldMatlabDoc@@YAXIHHQAPAVWordList@@AAVAccessor@@@Z 1002990c f   LexMatlab.obj
 0001:00028926       ?FoldOctaveDoc@@YAXIHHQAPAVWordList@@AAVAccessor@@@Z 10029926 f   LexMatlab.obj
 0001:00028940       ?isMETAPOSTone@@YA_NH@Z    10029940 f   LexMetapost.obj
 0001:00028983       ?isMETAPOSTthree@@YA_NH@Z  10029983 f   LexMetapost.obj
 0001:000289cb       ?isMETAPOSTidentifier@@YA_NH@Z 100299cb f   LexMetapost.obj
 0001:000289eb       ?CheckMETAPOSTInterface@@YAHIHAAVAccessor@@H@Z 100299eb f   LexMetapost.obj
 0001:00028b24       ?ColouriseMETAPOSTDoc@@YAXIHHQAPAVWordList@@AAVAccessor@@@Z 10029b24 f   LexMetapost.obj
 0001:00028e4c       ?classifyFoldPointMetapost@@YAHPBDQAPAVWordList@@@Z 10029e4c f   LexMetapost.obj
 0001:00028e76       ?ParseMetapostWord@@YAHIAAVAccessor@@PAD@Z 10029e76 f   LexMetapost.obj
 0001:00028eea       ?FoldMetapostDoc@@YAXIHHQAPAVWordList@@AAVAccessor@@@Z 10029eea f   LexMetapost.obj
 0001:00029091       ?IsAWordChar@@YA_NH@Z      1002a091 f   LexMMIXAL.obj
 0001:00029125       ?ColouriseMMIXALDoc@@YAXIHHQAPAVWordList@@AAVAccessor@@@Z 1002a125 f   LexMMIXAL.obj
 0001:00029461       ?GetLotLineState@@YAHAAVSString@@@Z 1002a461 f   LexMPT.obj
 0001:00029514       ?ColourizeLotDoc@@YAXIHHQAPAVWordList@@AAVAccessor@@@Z 1002a514 f   LexMPT.obj
 0001:00029633       ?FoldLotDoc@@YAXIHHQAPAVWordList@@AAVAccessor@@@Z 1002a633 f   LexMPT.obj
 0001:0002978e       ?isMSSQLOperator@@YA_ND@Z  1002a78e f   LexMSSQL.obj
 0001:000297f7       ?classifyWordSQL@@YADIIQAPAVWordList@@AAVAccessor@@II@Z 1002a7f7 f   LexMSSQL.obj
 0001:000299fb       ?ColouriseMSSQLDoc@@YAXIHHQAPAVWordList@@AAVAccessor@@@Z 1002a9fb f   LexMSSQL.obj
 0001:00029e15       ?FoldMSSQLDoc@@YAXIHHQAPAVWordList@@AAVAccessor@@@Z 1002ae15 f   LexMSSQL.obj
 0001:0002a05c       ?CheckForKeyword@@YAXAAVStyleContext@@QAPAVWordList@@@Z 1002b05c f   LexMySQL.obj
 0001:0002a13d       ?ColouriseMySQLDoc@@YAXIHHQAPAVWordList@@AAVAccessor@@@Z 1002b13d f   LexMySQL.obj
 0001:0002a52b       ?FoldMySQLDoc@@YAXIHHQAPAVWordList@@AAVAccessor@@@Z 1002b52b f   LexMySQL.obj
 0001:0002a956       ?tillEndOfTripleQuote@@YAHAAVAccessor@@HH@Z 1002b956 f   LexNimrod.obj
 0001:0002a98a       ?scanString@@YAHAAVAccessor@@HH_N@Z 1002b98a f   LexNimrod.obj
 0001:0002a9c5       ?scanChar@@YAHAAVAccessor@@HH@Z 1002b9c5 f   LexNimrod.obj
 0001:0002aa1b       ?scanIdent@@YAHAAVAccessor@@HAAVWordList@@@Z 1002ba1b f   LexNimrod.obj
 0001:0002aab3       ?scanNumber@@YAHAAVAccessor@@H@Z 1002bab3 f   LexNimrod.obj
 0001:0002ac47       ?ColouriseNimrodDoc@@YAXIHHQAPAVWordList@@AAVAccessor@@@Z 1002bc47 f   LexNimrod.obj
 0001:0002ae36       ?IsCommentLine@@YA_NHAAVAccessor@@@Z 1002be36 f   LexNimrod.obj
 0001:0002ae36       ?IsCommentLine@@YA_NHAAVAccessor@@@Z 1002be36 f   LexNimrod.obj
 0001:0002ae36       ?IsCommentLine@@YA_NHAAVAccessor@@@Z 1002be36 f   LexNimrod.obj
 0001:0002ae74       ?IsQuoteLine@@YA_NHAAVAccessor@@@Z 1002be74 f   LexNimrod.obj
 0001:0002ae74       ?IsQuoteLine@@YA_NHAAVAccessor@@@Z 1002be74 f   LexNimrod.obj
 0001:0002ae9b       ?FoldNimrodDoc@@YAXIHHQAPAVWordList@@AAVAccessor@@@Z 1002be9b f   LexNimrod.obj
 0001:0002b206       ?Is0To9@@YA_ND@Z           1002c206 f   LexNsis.obj
 0001:0002b206       ?isCmakeNumber@@YA_ND@Z    1002c206 f   LexNsis.obj
 0001:0002b206       ?isNsisNumber@@YA_ND@Z     1002c206 f   LexNsis.obj
 0001:0002b210       ?NsisNextLineHasElse@@YA_NIIAAVAccessor@@@Z 1002c210 f   LexNsis.obj
 0001:0002b26c       ?NsisCmp@@YAHPBD0_N@Z      1002c26c f   LexNsis.obj
 0001:0002b28b       ?calculateFoldNsis@@YAHIIHAAVAccessor@@_N1@Z 1002c28b f   LexNsis.obj
 0001:0002b510       ?classifyWordNsis@@YAHIIQAPAVWordList@@AAVAccessor@@@Z 1002c510 f   LexNsis.obj
 0001:0002b888       ?ColouriseNsisDoc@@YAXIHHQAPAVWordList@@AAVAccessor@@@Z 1002c888 f   LexNsis.obj
 0001:0002bd94       ?FoldNsisDoc@@YAXIHHQAPAVWordList@@AAVAccessor@@@Z 1002cd94 f   LexNsis.obj
 0001:0002c439       ?ColouriseOpalDoc@@YAXIHHQAPAVWordList@@AAVAccessor@@@Z 1002d439 f   LexOpal.obj
 0001:0002c601       ?strstart@@YA_NPBD0@Z      1002d601 f   LexOthers.obj
 0001:0002c621       ?Is1To9@@YA_ND@Z           1002d621 f   LexOthers.obj
 0001:0002c62b       ?IsBOperator@@YA_ND@Z      1002d62b f   LexOthers.obj
 0001:0002c64e       ?IsBSeparator@@YA_ND@Z     1002d64e f   LexOthers.obj
 0001:0002c671       ?ColouriseBatchLine@@YAXPADIIIQAPAVWordList@@AAVAccessor@@@Z 1002d671 f   LexOthers.obj
 0001:0002ced4       ?ColouriseBatchDoc@@YAXIHHQAPAVWordList@@AAVAccessor@@@Z 1002ded4 f   LexOthers.obj
 0001:0002cfad       ?ColouriseDiffLine@@YAXPADHAAVAccessor@@@Z 1002dfad f   LexOthers.obj
 0001:0002d126       ?ColouriseDiffDoc@@YAXIHHQAPAVWordList@@AAVAccessor@@@Z 1002e126 f   LexOthers.obj
 0001:0002d1e0       ?FoldDiffDoc@@YAXIHHQAPAVWordList@@AAVAccessor@@@Z 1002e1e0 f   LexOthers.obj
 0001:0002d2b6       ?ColourisePoLine@@YAXPADIIIAAVAccessor@@@Z 1002e2b6 f   LexOthers.obj
 0001:0002d3da       ?ColourisePoDoc@@YAXIHHQAPAVWordList@@AAVAccessor@@@Z 1002e3da f   LexOthers.obj
 0001:0002d4a5       ?ColourisePropsLine@@YAXPADIIIAAVAccessor@@_N@Z 1002e4a5 f   LexOthers.obj
 0001:0002d58c       ?ColourisePropsDoc@@YAXIHHQAPAVWordList@@AAVAccessor@@@Z 1002e58c f   LexOthers.obj
 0001:0002d66f       ?FoldPropsDoc@@YAXIHHQAPAVWordList@@AAVAccessor@@@Z 1002e66f f   LexOthers.obj
 0001:0002d7f7       ?ColouriseMakeLine@@YAXPADIIIAAVAccessor@@@Z 1002e7f7 f   LexOthers.obj
 0001:0002d98b       ?ColouriseMakeDoc@@YAXIHHQAPAVWordList@@AAVAccessor@@@Z 1002e98b f   LexOthers.obj
 0001:0002da52       ?RecogniseErrorListLine@@YAHPBDIAAH@Z 1002ea52 f   LexOthers.obj
 0001:0002e072       ?ColouriseErrorListLine@@YAXPADIIAAVAccessor@@_N@Z 1002f072 f   LexOthers.obj
 0001:0002e0bf       ?ColouriseErrorListDoc@@YAXIHHQAPAVWordList@@AAVAccessor@@@Z 1002f0bf f   LexOthers.obj
 0001:0002e1a1       ?isSpecial@@YAHD@Z         1002f1a1 f   LexOthers.obj
 0001:0002e1cc       ?isTag@@YAHHAAVAccessor@@@Z 1002f1cc f   LexOthers.obj
 0001:0002e25d       ?ColouriseLatexDoc@@YAXIHHQAPAVWordList@@AAVAccessor@@@Z 1002f25d f   LexOthers.obj
 0001:0002e433       ?ColouriseNullDoc@@YAXIHHQAPAVWordList@@AAVAccessor@@@Z 1002f433 f   LexOthers.obj
 0001:0002e468       ?GetForwardRangeLowered@@YAXIAAVCharacterSet@@AAVAccessor@@PADI@Z 1002f468 f   LexPascal.obj
 0001:0002e4ca       ?ClassifyPascalWord@@YAXQAPAVWordList@@AAVStyleContext@@AAH_N@Z 1002f4ca f   LexPascal.obj
 0001:0002e6f2       ?IsStreamCommentStyle@@YA_NH@Z 1002f6f2 f   LexPascal.obj
 0001:0002e707       ?IsCommentLine@@YA_NHAAVAccessor@@@Z 1002f707 f   LexPascal.obj
 0001:0002e782       ?GetFoldInPreprocessorLevelFlag@@YAIH@Z 1002f782 f   LexPascal.obj
 0001:0002e788       ?SetFoldInPreprocessorLevelFlag@@YAXAAHI@Z 1002f788 f   LexPascal.obj
 0001:0002e793       ?ColourisePascalDoc@@YAXIHHQAPAVWordList@@AAVAccessor@@@Z 1002f793 f   LexPascal.obj
 0001:0002eb97       ?ClassifyPascalPreprocessorFoldPoint@@YAXAAH0IAAVAccessor@@@Z 1002fb97 f   LexPascal.obj
 0001:0002ecd3       ?SkipWhiteSpace@@YAIIIAAVAccessor@@_N@Z 1002fcd3 f   LexPascal.obj
 0001:0002ed70       ?ClassifyPascalWordFoldPoint@@YAXAAH0HIIIAAVAccessor@@@Z 1002fd70 f   LexPascal.obj
 0001:0002f114       ?FoldPascalDoc@@YAXIHHQAPAVWordList@@AAVAccessor@@@Z 10030114 f   LexPascal.obj
 0001:0002f462       ?IsAWordChar@@YA_NH@Z      10030462 f   LexPB.obj
 0001:0002f462       ?IsAWordChar@@YA_NH@Z      10030462 f   LexPB.obj
 0001:0002f462       ?IsAWordChar@@YA_NH@Z      10030462 f   LexPB.obj
 0001:0002f462       ?IsAWordChar@@YA_NH@Z      10030462 f   LexPB.obj
 0001:0002f4bb       ?ColourisePBDoc@@YAXIHHQAPAVWordList@@AAVAccessor@@@Z 100304bb f   LexPB.obj
 0001:0002f709       ?FoldPBDoc@@YAXIHHQAPAVWordList@@AAVAccessor@@@Z 10030709 f   LexPB.obj
 0001:0002f913       ?isPerlKeyword@@YA_NIIAAVWordList@@AAVAccessor@@@Z 10030913 f   LexPerl.obj
 0001:0002f973       ?disambiguateBareword@@YAHAAVAccessor@@IIHII@Z 10030973 f   LexPerl.obj
 0001:0002fa76       ?skipWhitespaceComment@@YAXAAVAccessor@@AAI@Z 10030a76 f   LexPerl.obj
 0001:0002fa95       ?styleBeforeBracePair@@YAHAAVAccessor@@I@Z 10030a95 f   LexPerl.obj
 0001:0002fb05       ?styleCheckIdentifier@@YAHAAVAccessor@@I@Z 10030b05 f   LexPerl.obj
 0001:0002fb85       ?inputsymbolScan@@YAHAAVAccessor@@II@Z 10030b85 f   LexPerl.obj
 0001:0002fbcc       ?podLineScan@@YAHAAVAccessor@@AAII@Z 10030bcc f   LexPerl.obj
 0001:0002fc5d       ?styleCheckSubPrototype@@YA_NAAVAccessor@@I@Z 10030c5d f   LexPerl.obj
 0001:0002fcda       ?isMatch@@YA_NPBDPAD@Z     10030cda f   LexPerl.obj
 0001:0002fd03       ?actualNumStyle@@YAHH@Z    10030d03 f   LexPerl.obj
 0001:0002fd23       ?opposite@@YAHH@Z          10030d23 f   LexPerl.obj
 0001:0002fd23       ?opposite@@YAHH@Z          10030d23 f   LexPerl.obj
 0001:0002fdb5       ?IsCommentLine@@YA_NHAAVAccessor@@@Z 10030db5 f   LexPerl.obj
 0001:0002fe14       ?FoldPerlDoc@@YAXIHHQAPAVWordList@@AAVAccessor@@@Z 10030e14 f   LexPerl.obj
 0001:00030198       ?ColourisePerlDoc@@YAXIHHQAPAVWordList@@AAVAccessor@@@Z 10031198 f   LexPerl.obj
 0001:00031a05       ?ColourisePlmDoc@@YAXIHHQAPAVWordList@@AAVAccessor@@@Z 10032a05 f   LexPLM.obj
 0001:00031cbb       ?FoldPlmDoc@@YAXIHHQAPAVWordList@@AAVAccessor@@@Z 10032cbb f   LexPLM.obj
 0001:00031ee3       ?ColourisePovDoc@@YAXIHHQAPAVWordList@@AAVAccessor@@@Z 10032ee3 f   LexPOV.obj
 0001:0003237a       ?FoldPovDoc@@YAXIHHQAPAVWordList@@AAVAccessor@@@Z 1003337a f   LexPOV.obj
 0001:0003259a       ?IsContinuationLine@@YA_NIAAVAccessor@@@Z 1003359a f   LexPowerPro.obj
 0001:0003264e       ?GetStyleFirstWord@@YAHIAAVAccessor@@@Z 1003364e f   LexPowerPro.obj
 0001:000326a0       ?HasFunction@@YA_NAAVAccessor@@I@Z 100336a0 f   LexPowerPro.obj
 0001:000327d9       ?ColourisePowerProDoc@@YAXIHHQAPAVWordList@@AAVAccessor@@_N@Z 100337d9 f   LexPowerPro.obj
 0001:00032d05       ?FoldPowerProDoc@@YAXIHHQAPAVWordList@@AAVAccessor@@@Z 10033d05 f   LexPowerPro.obj
 0001:00033235       ?ColourisePowerProDocWrapper@@YAXIHHQAPAVWordList@@AAVAccessor@@@Z 10034235 f   LexPowerPro.obj
 0001:00033253       ?IsAWordChar@@YA_NH@Z      10034253 f   LexPowerShell.obj
 0001:00033270       ?ColourisePowerShellDoc@@YAXIHHQAPAVWordList@@AAVAccessor@@@Z 10034270 f   LexPowerShell.obj
 0001:00033454       ?FoldPowerShellDoc@@YAXIHHQAPAVWordList@@AAVAccessor@@@Z 10034454 f   LexPowerShell.obj
 0001:000335d1       ?Colourise4glDoc@@YAXIHHQAPAVWordList@@AAVAccessor@@@Z 100345d1 f   LexProgress.obj
 0001:00033a1d       ?IsStreamCommentStyle@@YA_NH@Z 10034a1d f   LexProgress.obj
 0001:00033a2a       ?FoldNoBox4glDoc@@YAXIHHAAVAccessor@@@Z 10034a2a f   LexProgress.obj
 0001:00033c0c       ?Fold4glDoc@@YAXIHHQAPAVWordList@@AAVAccessor@@@Z 10034c0c f   LexProgress.obj
 0001:00033c26       ?IsASelfDelimitingChar@@YA_NH@Z 10034c26 f   LexPS.obj
 0001:00033c5f       ?IsAWhitespaceChar@@YA_NH@Z 10034c5f f   LexPS.obj
 0001:00033c83       ?IsABaseNDigit@@YA_NHH@Z   10034c83 f   LexPS.obj
 0001:00033cbe       ?ColourisePSDoc@@YAXIHHQAPAVWordList@@AAVAccessor@@@Z 10034cbe f   LexPS.obj
 0001:000343ba       ?FoldPSDoc@@YAXIHHQAPAVWordList@@AAVAccessor@@@Z 100353ba f   LexPS.obj
 0001:00034538       ?IsPyComment@@YA_NAAVAccessor@@HH@Z 10035538 f   LexPython.obj
 0001:00034557       ?IsPyStringTypeChar@@YA_NHW4literalsAllowed@@@Z 10035557 f   LexPython.obj
 0001:00034580       ?IsPyStringStart@@YA_NHHHW4literalsAllowed@@@Z 10035580 f   LexPython.obj
 0001:000345d8       ?GetPyStringState@@YAHAAVAccessor@@HPAIW4literalsAllowed@@@Z 100355d8 f   LexPython.obj
 0001:00034699       ?ColourisePyDoc@@YAXIHHQAPAVWordList@@AAVAccessor@@@Z 10035699 f   LexPython.obj
 0001:00034dd4       ?FoldPyDoc@@YAXIHHQAPAVWordList@@AAVAccessor@@@Z 10035dd4 f   LexPython.obj
 0001:0003513f       ?IsAnOperator@@YA_NH@Z     1003613f f   LexR.obj
 0001:000351c1       ?ColouriseRDoc@@YAXIHHQAPAVWordList@@AAVAccessor@@@Z 100361c1 f   LexR.obj
 0001:00035439       ?FoldRDoc@@YAXIHHQAPAVWordList@@AAVAccessor@@@Z 10036439 f   LexR.obj
 0001:000355b2       ?IsAWordStart@@YA_NHH@Z    100365b2 f   LexRebol.obj
 0001:0003560c       ?IsAnOperator@@YA_NHHH@Z   1003660c f   LexRebol.obj
 0001:00035699       ?ColouriseRebolDoc@@YAXIHHQAPAVWordList@@AAVAccessor@@@Z 10036699 f   LexRebol.obj
 0001:00035cb1       ?FoldRebolDoc@@YAXIHHQAPAVWordList@@AAVAccessor@@@Z 10036cb1 f   LexRebol.obj
 0001:00035def       ?isEOLChar@@YA_ND@Z        10036def f   LexRuby.obj
 0001:00035def       ?IsEOLChar@@YA_ND@Z        10036def f   LexRuby.obj
 0001:00035e04       ?isSafeWordcharOrHigh@@YA_ND@Z 10036e04 f   LexRuby.obj
 0001:00035e21       ?followsDot@@YA_NIAAVAccessor@@@Z 10036e21 f   LexRuby.obj
 0001:00035e6a       ?isMatch@@YA_NAAVAccessor@@HHPBD@Z 10036e6a f   LexRuby.obj
 0001:00035ea0       ?lookingAtHereDocDelim@@YA_NAAVAccessor@@HHPBD@Z 10036ea0 f   LexRuby.obj
 0001:00035ef1       ?opposite@@YADD@Z          10036ef1 f   LexRuby.obj
 0001:00035f0d       ?redo_char@@YAXAAHAAD110@Z 10036f0d f   LexRuby.obj
 0001:00035f23       ?advance_char@@YAXAAHAAD11@Z 10036f23 f   LexRuby.obj
 0001:00035f32       ?currLineContainsHereDelims@@YA_NAAHAAVAccessor@@@Z 10036f32 f   LexRuby.obj
 0001:00035f9e       ?enterInnerExpression@@YAXPAH0PAVQuoteCls@@AAH22V1@@Z 10036f9e f   LexRuby.obj
 0001:00035fce       ?exitInnerExpression@@YAXPAH0PAVQuoteCls@@AAH22AAV1@@Z 10036fce f   LexRuby.obj
 0001:00035ffd       ?isEmptyLine@@YA_NHAAVAccessor@@@Z 10036ffd f   LexRuby.obj
 0001:00036025       ?RE_CanFollowKeyword@@YA_NPBD@Z 10037025 f   LexRuby.obj
 0001:00036146       ?skipWhitespace@@YAHHHAAVAccessor@@@Z 10037146 f   LexRuby.obj
 0001:0003616e       ?sureThisIsHeredoc@@YA_NHAAVAccessor@@PAD@Z 1003716e f   LexRuby.obj
 0001:00036231       ?haveTargetMatch@@YA_NHHHHAAVAccessor@@@Z 10037231 f   LexRuby.obj
 0001:00036285       ?sureThisIsNotHeredoc@@YA_NHAAVAccessor@@@Z 10037285 f   LexRuby.obj
 0001:000364eb       ?synchronizeDocStart@@YAXAAIAAH1AAVAccessor@@_N@Z 100374eb f   LexRuby.obj
 0001:00036600       ?getPrevWord@@YAXHPADAAVAccessor@@H@Z 10037600 f   LexRuby.obj
 0001:0003665a       ?keywordIsAmbiguous@@YA_NPBD@Z 1003765a f   LexRuby.obj
 0001:000366b5       ?keywordDoStartsLoop@@YA_NHAAVAccessor@@@Z 100376b5 f   LexRuby.obj
 0001:00036797       ?FoldRbDoc@@YAXIHHQAPAVWordList@@AAVAccessor@@@Z 10037797 f   LexRuby.obj
 0001:00036b51       ?keywordIsModifier@@YA_NPBDHAAVAccessor@@@Z 10037b51 f   LexRuby.obj
 0001:00036c7b       ?ClassifyWordRb@@YAHIIAAVWordList@@AAVAccessor@@PAD@Z 10037c7b f   LexRuby.obj
 0001:00036daf       ?ColouriseRbDoc@@YAXIHHQAPAVWordList@@AAVAccessor@@@Z 10037daf f   LexRuby.obj
 0001:000382dd       ?ClassifyWordSol@@YAXIIAAVWordList@@AAVAccessor@@PAD@Z 100392dd f   LexScriptol.obj
 0001:000383ea       ?IsSolComment@@YA_NAAVAccessor@@HH@Z 100393ea f   LexScriptol.obj
 0001:00038429       ?IsSolStringStart@@YA_ND@Z 10039429 f   LexScriptol.obj
 0001:0003843d       ?IsSolWordStart@@YA_ND@Z   1003943d f   LexScriptol.obj
 0001:00038462       ?GetSolStringState@@YAHAAVAccessor@@HPAH@Z 10039462 f   LexScriptol.obj
 0001:000384dd       ?ColouriseSolDoc@@YAXIHHQAPAVWordList@@AAVAccessor@@@Z 100394dd f   LexScriptol.obj
 0001:0003897b       ?FoldSolDoc@@YAXIHHQAPAVWordList@@AAVAccessor@@@Z 1003997b f   LexScriptol.obj
 0001:00038aeb       ?isDecDigit@@YA_NH@Z       10039aeb f   LexSmalltalk.obj
 0001:00038b04       ?isLetter@@YA_NH@Z         10039b04 f   LexSmalltalk.obj
 0001:00038b1d       ?isBinSel@@YA_NH@Z         10039b1d f   LexSmalltalk.obj
 0001:00038b36       ?isAlphaNumeric@@YA_NH@Z   10039b36 f   LexSmalltalk.obj
 0001:00038b57       ?isDigitOfRadix@@YA_NHH@Z  10039b57 f   LexSmalltalk.obj
 0001:00038b89       ?skipString@@YAXAAVStyleContext@@@Z 10039b89 f   LexSmalltalk.obj
 0001:00038bae       ?handleHash@@YAXAAVStyleContext@@@Z 10039bae f   LexSmalltalk.obj
 0001:00038c40       ?skipInt@@YAXAAVStyleContext@@H@Z 10039c40 f   LexSmalltalk.obj
 0001:00038c5b       ?handleNumeric@@YAXAAVStyleContext@@@Z 10039c5b f   LexSmalltalk.obj
 0001:00038d96       ?handleLetter@@YAXAAVStyleContext@@PAVWordList@@@Z 10039d96 f   LexSmalltalk.obj
 0001:00038ef0       ?colorizeSmalltalkDoc@@YAXIHHQAPAVWordList@@AAVAccessor@@@Z 10039ef0 f   LexSmalltalk.obj
 0001:00039628       ?IsSWordStart@@YA_NHH@Z    1003a628 f   LexSorcus.obj
 0001:00039658       ?ColouriseSorcusDoc@@YAXIHHQAPAVWordList@@AAVAccessor@@@Z 1003a658 f   LexSorcus.obj
 0001:0003983f       ?ColouriseSpecmanDoc@@YAXIHHQAPAVWordList@@AAVAccessor@@_N@Z 1003a83f f   LexSpecman.obj
 0001:00039c57       ?FoldNoBoxSpecmanDoc@@YAXIHHAAVAccessor@@@Z 1003ac57 f   LexSpecman.obj
 0001:00039e1c       ?FoldSpecmanDoc@@YAXIHHQAPAVWordList@@AAVAccessor@@@Z 1003ae1c f   LexSpecman.obj
 0001:00039e31       ?ColouriseSpecmanDocSensitive@@YAXIHHQAPAVWordList@@AAVAccessor@@@Z 1003ae31 f   LexSpecman.obj
 0001:00039e4f       ?ColouriseComment@@YAXAAVStyleContext@@AA_N@Z 1003ae4f f   LexSpice.obj
 0001:00039e68       ?ColouriseDelimiter@@YAXAAVStyleContext@@AA_N@Z 1003ae68 f   LexSpice.obj
 0001:00039e84       ?ColouriseWhiteSpace@@YAXAAVStyleContext@@AA_N@Z 1003ae84 f   LexSpice.obj
 0001:00039e84       ?ColouriseWhiteSpace@@YAXAAVStyleContext@@AA_N@Z 1003ae84 f   LexSpice.obj
 0001:00039e9b       ?ColouriseNumber@@YAXAAVStyleContext@@AA_N@Z 1003ae9b f   LexSpice.obj
 0001:00039f60       ?ColouriseWord@@YAXAAVStyleContext@@AAVWordList@@11AA_N@Z 1003af60 f   LexSpice.obj
 0001:0003a060       ?ColouriseDocument@@YAXIHHQAPAVWordList@@AAVAccessor@@@Z 1003b060 f   LexSpice.obj
 0001:0003a190       ?IsADoxygenChar@@YA_NH@Z   1003b190 f   LexSQL.obj
 0001:0003a1d7       ?ColouriseSQLDoc@@YAXIHHQAPAVWordList@@AAVAccessor@@@Z 1003b1d7 f   LexSQL.obj
 0001:0003a695       ?FoldSQLDoc@@YAXIHHQAPAVWordList@@AAVAccessor@@@Z 1003b695 f   LexSQL.obj
 0001:0003aa2c       ?IsStreamCommentStyle@@YA_NH@Z 1003ba2c f   LexTACL.obj
 0001:0003aa2c       ?IsStreamCommentStyle@@YA_NH@Z 1003ba2c f   LexTACL.obj
 0001:0003aa2c       ?IsStreamCommentStyle@@YA_NH@Z 1003ba2c f   LexTACL.obj
 0001:0003aa2c       ?IsStreamCommentStyle@@YA_NH@Z 1003ba2c f   LexTACL.obj
 0001:0003aa47       ?ColourTo@@YAXAAVAccessor@@II_N@Z 1003ba47 f   LexTACL.obj
 0001:0003aa47       ?ColourTo@@YAXAAVAccessor@@II_N@Z 1003ba47 f   LexTACL.obj
 0001:0003aa7d       ?classifyWordTACL@@YAHIIQAPAVWordList@@AAVAccessor@@_N@Z 1003ba7d f   LexTACL.obj
 0001:0003abb2       ?classifyFoldPointTACL@@YAHPBD@Z 1003bbb2 f   LexTACL.obj
 0001:0003abc6       ?ColouriseTACLDoc@@YAXIHHQAPAVWordList@@AAVAccessor@@@Z 1003bbc6 f   LexTACL.obj
 0001:0003afe3       ?FoldTACLDoc@@YAXIHHQAPAVWordList@@AAVAccessor@@@Z 1003bfe3 f   LexTACL.obj
 0001:0003b325       ?IsEOL@@YA_NHH@Z           1003c325 f   LexTADS3.obj
 0001:0003b341       ?IsATADS3Operator@@YA_NH@Z 1003c341 f   LexTADS3.obj
 0001:0003b3bb       ?ColouriseTADS3Operator@@YAXAAVStyleContext@@@Z 1003c3bb f   LexTADS3.obj
 0001:0003b3e5       ?ColouriseTADSHTMLString@@YAXAAVStyleContext@@AAH@Z 1003c3e5 f   LexTADS3.obj
 0001:0003b547       ?ColouriseTADS3HTMLTagStart@@YAXAAVStyleContext@@@Z 1003c547 f   LexTADS3.obj
 0001:0003b58d       ?ColouriseTADS3HTMLTag@@YAXAAVStyleContext@@AAH@Z 1003c58d f   LexTADS3.obj
 0001:0003b6ce       ?ColouriseTADS3Keyword@@YAXAAVStyleContext@@QAPAVWordList@@I@Z 1003c6ce f   LexTADS3.obj
 0001:0003b84a       ?ColouriseTADS3MsgParam@@YAXAAVStyleContext@@AAH@Z 1003c84a f   LexTADS3.obj
 0001:0003b8e9       ?ColouriseTADS3LibDirective@@YAXAAVStyleContext@@AAH@Z 1003c8e9 f   LexTADS3.obj
 0001:0003b9cd       ?ColouriseTADS3String@@YAXAAVStyleContext@@AAH@Z 1003c9cd f   LexTADS3.obj
 0001:0003bb2f       ?ColouriseTADS3Comment@@YAXAAVStyleContext@@H@Z 1003cb2f f   LexTADS3.obj
 0001:0003bb86       ?ColouriseToEndOfLine@@YAXAAVStyleContext@@HH@Z 1003cb86 f   LexTADS3.obj
 0001:0003bbf1       ?ColouriseTADS3Number@@YAXAAVStyleContext@@@Z 1003cbf1 f   LexTADS3.obj
 0001:0003bcf1       ?ColouriseTADS3Doc@@YAXIHHQAPAVWordList@@AAVAccessor@@@Z 1003ccf1 f   LexTADS3.obj
 0001:0003bfe4       ?IsStringTransition@@YA_NHH@Z 1003cfe4 f   LexTADS3.obj
 0001:0003c017       ?IsATADS3Punctuation@@YA_NH@Z 1003d017 f   LexTADS3.obj
 0001:0003c032       ?IsAnIdentifier@@YA_NH@Z   1003d032 f   LexTADS3.obj
 0001:0003c04d       ?IsSpaceEquivalent@@YA_NHH@Z 1003d04d f   LexTADS3.obj
 0001:0003c075       ?peekAhead@@YADIIAAVAccessor@@@Z 1003d075 f   LexTADS3.obj
 0001:0003c0e0       ?FoldTADS3Doc@@YAXIHHQAPAVWordList@@AAVAccessor@@@Z 1003d0e0 f   LexTADS3.obj
 0001:0003c4ab       ?classifyWordTAL@@YAHIIQAPAVWordList@@AAVAccessor@@_N@Z 1003d4ab f   LexTAL.obj
 0001:0003c5b5       ?classifyFoldPointTAL@@YAHPBD@Z 1003d5b5 f   LexTAL.obj
 0001:0003c60a       ?ColouriseTALDoc@@YAXIHHQAPAVWordList@@AAVAccessor@@@Z 1003d60a f   LexTAL.obj
 0001:0003ca0f       ?FoldTALDoc@@YAXIHHQAPAVWordList@@AAVAccessor@@@Z 1003da0f f   LexTAL.obj
 0001:0003cd8f       ?IsAWordChar@@YA_NH@Z      1003dd8f f   LexTCL.obj
 0001:0003cdb6       ?IsAWordStart@@YA_NH@Z     1003ddb6 f   LexTCL.obj
 0001:0003cdd8       ?IsANumberChar@@YA_NH@Z    1003ddd8 f   LexTCL.obj
 0001:0003ce10       ?ColouriseTCLDoc@@YAXIHHQAPAVWordList@@AAVAccessor@@@Z 1003de10 f   LexTCL.obj
 0001:0003d684       ?endOfLine@@YA_NAAVAccessor@@I@Z 1003e684 f   LexTeX.obj
 0001:0003d684       ?AtEOL@@YA_NAAVAccessor@@I@Z 1003e684 f   LexTeX.obj
 0001:0003d6bd       ?CheckTeXInterface@@YAHIHAAVAccessor@@H@Z 1003e6bd f   LexTeX.obj
 0001:0003d884       ?ColouriseTeXDoc@@YAXIHHQAPAVWordList@@AAVAccessor@@@Z 1003e884 f   LexTeX.obj
 0001:0003dc0e       ?ParseTeXCommand@@YAHIAAVAccessor@@PAD@Z 1003ec0e f   LexTeX.obj
 0001:0003dcbf       ?classifyFoldPointTeXPaired@@YAHPBD@Z 1003ecbf f   LexTeX.obj
 0001:0003de0e       ?classifyFoldPointTeXUnpaired@@YAHPBD@Z 1003ee0e f   LexTeX.obj
 0001:0003dfb7       ?IsTeXCommentLine@@YA_NHAAVAccessor@@@Z 1003efb7 f   LexTeX.obj
 0001:0003dff1       ?FoldTexDoc@@YAXIHHQAPAVWordList@@AAVAccessor@@@Z 1003eff1 f   LexTeX.obj
 0001:0003e2f7       ?ColouriseVBDoc@@YAXIHHQAPAVWordList@@AAVAccessor@@_N@Z 1003f2f7 f   LexVB.obj
 0001:0003e73f       ?FoldVBDoc@@YAXIHHQAPAVWordList@@AAVAccessor@@@Z 1003f73f f   LexVB.obj
 0001:0003e73f       ?FoldFlagShipDoc@@YAXIHHQAPAVWordList@@AAVAccessor@@@Z 1003f73f f   LexVB.obj
 0001:0003e869       ?ColouriseVBNetDoc@@YAXIHHQAPAVWordList@@AAVAccessor@@@Z 1003f869 f   LexVB.obj
 0001:0003e887       ?ColouriseVBScriptDoc@@YAXIHHQAPAVWordList@@AAVAccessor@@@Z 1003f887 f   LexVB.obj
 0001:0003e8a5       ?IsAWordChar@@YA_NH@Z      1003f8a5 f   LexVerilog.obj
 0001:0003e8a5       ?IsAWordChar@@YA_NH@Z      1003f8a5 f   LexVerilog.obj
 0001:0003e8ce       ?ColouriseVerilogDoc@@YAXIHHQAPAVWordList@@AAVAccessor@@@Z 1003f8ce f   LexVerilog.obj
 0001:0003ebf1       ?IsStreamCommentStyle@@YA_NH@Z 1003fbf1 f   LexVerilog.obj
 0001:0003ebf1       ?IsStreamCommentStyle@@YA_NH@Z 1003fbf1 f   LexVerilog.obj
 0001:0003ebf1       ?IsAsyCommentStyle@@YA_NH@Z 1003fbf1 f   LexVerilog.obj
 0001:0003ebfc       ?FoldNoBoxVerilogDoc@@YAXIHHAAVAccessor@@@Z 1003fbfc f   LexVerilog.obj
 0001:0003f093       ?FoldVerilogDoc@@YAXIHHQAPAVWordList@@AAVAccessor@@@Z 10040093 f   LexVerilog.obj
 0001:0003f0ad       ?IsAWordChar@@YA_NH@Z      100400ad f   LexVHDL.obj
 0001:0003f0ad       ?IsAWordStart@@YA_NH@Z     100400ad f   LexVHDL.obj
 0001:0003f0ad       ?IsAWordStart@@YA_NH@Z     100400ad f   LexVHDL.obj
 0001:0003f0ad       ?IsAWordChar@@YA_NH@Z      100400ad f   LexVHDL.obj
 0001:0003f0cc       ?ColouriseVHDLDoc@@YAXIHHQAPAVWordList@@AAVAccessor@@@Z 100400cc f   LexVHDL.obj
 0001:0003f350       ?IsCommentLine@@YA_NHAAVAccessor@@@Z 10040350 f   LexVHDL.obj
 0001:0003f3a8       ?FoldNoBoxVHDLDoc@@YAXIHHAAVAccessor@@@Z 100403a8 f   LexVHDL.obj
 0001:0003fc5d       ?FoldVHDLDoc@@YAXIHHQAPAVWordList@@AAVAccessor@@@Z 10040c5d f   LexVHDL.obj
 0001:0003fc73       ?SpaceCount@@YAIPAD@Z      10040c73 f   LexYAML.obj
 0001:0003fc8a       ?ColouriseYAMLLine@@YAXPADIIIIAAVWordList@@AAVAccessor@@@Z 10040c8a f   LexYAML.obj
 0001:0003ff01       ?ColouriseYAMLDoc@@YAXIHHQAPAVWordList@@AAVAccessor@@@Z 10040f01 f   LexYAML.obj
 0001:0004001d       ?IsCommentLine@@YA_NHAAVAccessor@@@Z 1004101d f   LexYAML.obj
 0001:00040036       ?FoldYAMLDoc@@YAXIHHQAPAVWordList@@AAVAccessor@@@Z 10041036 f   LexYAML.obj
 0001:0004033f       ?DrawBox@@YAXPAVSurface@@HHHVColourAllocated@@1@Z 1004133f f   LineMarker.obj
 0001:00040381       ?DrawCircle@@YAXPAVSurface@@HHHVColourAllocated@@1@Z 10041381 f   LineMarker.obj
 0001:000403c3       ?DrawPlus@@YAXPAVSurface@@HHHVColourAllocated@@@Z 100413c3 f   LineMarker.obj
 0001:0004043b       ?DrawMinus@@YAXPAVSurface@@HHHVColourAllocated@@@Z 1004143b f   LineMarker.obj
 0001:00040d7a       ?NumberLines@@YAHPBD@Z     10041d7a f   PerLine.obj
 0001:00040d95       ?AllocateAnnotation@@YAPADHH@Z 10041d95 f   PerLine.obj
 0001:000419d5       ?SetWindowPointer@@YAXPAUHWND__@@PAX@Z 100429d5 f   PlatWin.obj
 0001:000419d5       ?SetWindowPointer@@YAXPAUHWND__@@PAX@Z 100429d5 f   PlatWin.obj
 0001:00041a03       ?RectFromPRectangle@@YA?AUtagRECT@@VPRectangle@@@Z 10042a03 f   PlatWin.obj
 0001:00041acc       ?SetLogFont@@YAXAAUtagLOGFONTA@@PBDHH_N2@Z 10042acc f   PlatWin.obj
 0001:00041b23       ?HashFont@@YAHPBDHH_N1@Z   10042b23 f   PlatWin.obj
 0001:0004204c       ?AllFour@@YAXPAKHHHHK@Z    1004304c f   PlatWin.obj
 0001:00042476       ?Window_SendMessage@@YAJPAVWindow@@IIJ@Z 10043476 f   PlatWin.obj
 0001:00042dda       __catch$?ControlWndProc@ListBoxX@@CGJPAUHWND__@@IIJ@Z$0 10043dda f   PlatWin.obj
 0001:00044428       ?ListBoxX_Register@@YA_NXZ 10045428 f   PlatWin.obj
 0001:00044de3       ?NextBadU@@YAHPBDHHAAH@Z   10045de3 f   PositionCache.obj
 0001:00045c1e       ?ArrayFromWordList@@YAPAPADPADPAH_N@Z 10046c1e f   PropSet.obj
 0001:00045d64       ?SortWordList@@YAXPAPADI@Z 10046d64 f   PropSet.obj
 0001:000461ca       ?ExpandAllInPlace@@YAHABVPropSet@@AAVSString@@HABUVarChain@@@Z 100471ca f   PropSet.obj
 0001:00046570       ?GetHexaChar@@YAHEE@Z      10047570 f   RESearch.obj
 0001:00048c61       ?LoWord@@YAGK@Z            10049c61 f   ScintillaWin.obj
 0001:00048c67       ?HiWord@@YAGK@Z            10049c67 f   ScintillaWin.obj
 0001:00048c6b       ?InputCodePage@@YAHXZ      10049c6b f   ScintillaWin.obj
 0001:00048cb5       ?KeyTranslate@@YAHH@Z      10049cb5 f   ScintillaWin.obj
 0001:00048f18       ?SciMessageFromEM@@YAII@Z  10049f18 f   ScintillaWin.obj
 0001:00049037       ?CodePageFromCharSet@@YAIKI@Z 1004a037 f   ScintillaWin.obj
 0001:0004a294       ?CompareDevCap@@YA_NPAUHDC__@@0H@Z 1004b294 f   ScintillaWin.obj
 0001:0004a50d       __catch$?DragOver@ScintillaWin@@QAGJKU_POINTL@@PAK@Z$0 1004b50d f   ScintillaWin.obj
 0001:0004a554       __catch$?DragLeave@ScintillaWin@@QAGJXZ$0 1004b554 f   ScintillaWin.obj
 0001:0004a7be       __catch$?Drop@ScintillaWin@@QAGJPAUIDataObject@@KU_POINTL@@PAK@Z$0 1004b7be f   ScintillaWin.obj
 0001:0004aa12       ?PointerFromWindow@@YAPAXPAUHWND__@@@Z 1004ba12 f   ScintillaWin.obj
 0001:0004aa12       ?PointerFromWindow@@YAPAXPAUHWND__@@@Z 1004ba12 f   ScintillaWin.obj
 0001:0004ab9b       __catch$?CTWndProc@ScintillaWin@@CGJPAUHWND__@@IIJ@Z$0 1004bb9b f   ScintillaWin.obj
 0001:0004ae72       __catch$?FormatEnumerator_Clone@@YGJPAVFormatEnumerator@@PAPAUIEnumFORMATETC@@@Z$0 1004be72 f   ScintillaWin.obj
 0001:0004af48       __catch$?DataObject_EnumFormatEtc@@YGJPAVDataObject@@KPAPAUIEnumFORMATETC@@@Z$0 1004bf48 f   ScintillaWin.obj
 0001:0004af65       __catch$?DataObject_EnumFormatEtc@@YGJPAVDataObject@@KPAPAUIEnumFORMATETC@@@Z$1 1004bf65 f   ScintillaWin.obj
 0001:0004afa7       __catch$?DropTarget_DragEnter@@YGJPAVDropTarget@@PAUIDataObject@@KU_POINTL@@PAK@Z$0 1004bfa7 f   ScintillaWin.obj
 0001:0004aff3       __catch$?DropTarget_DragOver@@YGJPAVDropTarget@@KU_POINTL@@PAK@Z$0 1004bff3 f   ScintillaWin.obj
 0001:0004b033       __catch$?DropTarget_DragLeave@@YGJPAVDropTarget@@@Z$0 1004c033 f   ScintillaWin.obj
 0001:0004b082       __catch$?DropTarget_Drop@@YGJPAVDropTarget@@PAUIDataObject@@KU_POINTL@@PAK@Z$0 1004c082 f   ScintillaWin.obj
 0001:0004b134       __catch$?SWndProc@ScintillaWin@@CGJPAUHWND__@@IIJ@Z$0 1004c134 f   ScintillaWin.obj
 0001:0004b187       __catch$?SWndProc@ScintillaWin@@CGJPAUHWND__@@IIJ@Z$2 1004c187 f   ScintillaWin.obj
 0001:0004be27       __catch$?WndProc@ScintillaWin@@UAEJIKJ@Z$0 1004ce27 f   ScintillaWin.obj
 0001:0004be3f       __catch$?WndProc@ScintillaWin@@UAEJIKJ@Z$1 1004ce3f f   ScintillaWin.obj
 0001:0004c346       ?getRange@@YAXIIAAVAccessor@@PADI@Z 1004d346 f   StyleContext.obj
 0001:0004c346       ?GetRange@@YAXIIAAVAccessor@@PADI@Z 1004d346 f   StyleContext.obj
 0001:0004c346       ?getRange@@YAXIIAAVAccessor@@PADI@Z 1004d346 f   StyleContext.obj
 0001:0004c346       ?getRange@@YAXIIAAVAccessor@@PADI@Z 1004d346 f   StyleContext.obj
 0001:0004c346       ?getRangeLowered@@YAXIIAAVAccessor@@PADI@Z 1004d346 f   StyleContext.obj
 0001:0004c346       ?GetRangeLowered@@YAXIIAAVAccessor@@PADI@Z 1004d346 f   StyleContext.obj
 0001:0004d5d1       ?NextField@@YAPBDPBD@Z     1004e5d1 f   XPM.obj
 0001:0004d604       ?MeasureLength@@YAIPBD@Z   1004e604 f   XPM.obj
 0001:0004e173       ?CatchGuardHandler@@YA?AW4_EXCEPTION_DISPOSITION@@PAUEHExceptionRecord@@PAUCatchGuardRN@@PAX2@Z 1004f173 f   LIBCMT:trnsctrl.obj
 0001:0004e278       ?TranslatorGuardHandler@@YA?AW4_EXCEPTION_DISPOSITION@@PAUEHExceptionRecord@@PAUTranslatorGuardRN@@PAX2@Z 1004f278 f   LIBCMT:trnsctrl.obj
 0001:0004f982       __onexit_nolock            10050982 f   LIBCMT:onexit.obj
 0001:00051470       _swap                      10052470 f   LIBCMT:qsort.obj
 0001:000514a0       _shortsort                 100524a0 f   LIBCMT:qsort.obj
 0001:000519ba       ___DllMainCRTStartup       100529ba f   LIBCMT:dllcrt0.obj
 0001:00051e81       ?ExFilterRethrow@@YAHPAU_EXCEPTION_POINTERS@@@Z 10052e81 f   LIBCMT:frame.obj
 0001:00051f3f       ?IsInExceptionSpec@@YAEPAUEHExceptionRecord@@PBU_s_ESTypeList@@@Z 10052f3f f   LIBCMT:frame.obj
 0001:00051fb8       ?CallUnexpected@@YAXPBU_s_ESTypeList@@@Z 10052fb8 f   LIBCMT:frame.obj
 0001:00051fe9       __catch$?CallUnexpected@@YAXPBU_s_ESTypeList@@@Z$0 10052fe9 f   LIBCMT:frame.obj
 0001:00052001       ?CallCatchBlock@@YAPAXPAUEHExceptionRecord@@PAUEHRegistrationNode@@PAU_CONTEXT@@PBU_s_FuncInfo@@PAXHK@Z 10053001 f   LIBCMT:frame.obj
 0001:000523ad       ?CatchIt@@YAXPAUEHExceptionRecord@@PAUEHRegistrationNode@@PAU_CONTEXT@@PAXPBU_s_FuncInfo@@PBU_s_HandlerType@@PBU_s_CatchableType@@PBU_s_TryBlockMapEntry@@H1E@Z 100533ad f   LIBCMT:frame.obj
 0001:00052419       ?FindHandlerForForeignException@@YAXPAUEHExceptionRecord@@PAUEHRegistrationNode@@PAU_CONTEXT@@PAXPBU_s_FuncInfo@@HH1@Z 10053419 f   LIBCMT:frame.obj
 0001:0005250b       ?FindHandler@@YAXPAUEHExceptionRecord@@PAUEHRegistrationNode@@PAU_CONTEXT@@PAXPBU_s_FuncInfo@@EH1@Z 1005350b f   LIBCMT:frame.obj
 0001:0005295d       __use_encode_pointer       1005395d f   LIBCMT:tidtable.obj
 0001:000532f1       _fastcopy_I                100542f1 f   LIBCMT:p4_memcpy.obj
 0001:00053666       ?CPtoLCID@@YAHH@Z          10054666 f   LIBCMT:mbctype.obj
 0001:00053695       ?setSBCS@@YAXPAUthreadmbcinfostruct@@@Z 10054695 f   LIBCMT:mbctype.obj
 0001:000536ea       ?setSBUpLow@@YAXPAUthreadmbcinfostruct@@@Z 100546ea f   LIBCMT:mbctype.obj
 0001:00053918       ?getSystemCP@@YAHH@Z       10054918 f   LIBCMT:mbctype.obj
 0001:00053f75       __updatetlocinfoEx_nolock  10054f75 f   LIBCMT:setlocal.obj
 0001:00054422       _write_char                10055422 f   LIBCMT:output.obj
 0001:00054455       _write_multi_char          10055455 f   LIBCMT:output.obj
 0001:00054479       _write_string              10055479 f   LIBCMT:output.obj
 0001:00055000       _fastzero_I                10056000 f   LIBCMT:p4_memset.obj
 0001:00055101       ?__crtLCMapStringA_stat@@YAHPAUlocaleinfo_struct@@KKPBDHPADHHH@Z 10056101 f   LIBCMT:a_map.obj
 0001:00055711       __initterm                 10056711 f   LIBCMT:crt0dat.obj
 0001:0005584e       _doexit                    1005684e f   LIBCMT:crt0dat.obj
 0001:0005599c       ?strtoxl@@YAKPAUlocaleinfo_struct@@PBDPAPBDHH@Z 1005699c f   LIBCMT:strtol.obj
 0001:00055df2       __shift                    10056df2 f   LIBCMT:cvt.obj
 0001:00055e2b       __cftoe2_l                 10056e2b f   LIBCMT:cvt.obj
 0001:000563f5       __cftof2_l                 100573f5 f   LIBCMT:cvt.obj
 0001:00056808       _siglookup                 10057808 f   LIBCMT:winsig.obj
 0001:00056d60       _parse_cmdline             10057d60 f   LIBCMT:stdargv.obj
 0001:000581a4       __unwind_handler           100591a4 f   LIBCMT:exsup.obj
 0001:000582bb       _has_osfxsr_set            100592bb f   LIBCMT:cpu_disp.obj
 0001:00058408       __unwind_handler4          10059408 f   LIBCMT:exsup4.obj
 0001:0005860b       ?__crtGetStringTypeA_stat@@YAHPAUlocaleinfo_struct@@KPBDHPAGHHH@Z 1005960b f   LIBCMT:a_str.obj
 0001:0005a069       ___crtInitCritSecNoSpinCount@8 1005b069 f   LIBCMT:initcrit.obj
 0001:0005a632       ?x_ismbbtype_l@@YAHPAUlocaleinfo_struct@@IHH@Z 1005b632 f   LIBCMT:ismbbyte.obj
 0001:0005ab79       _flsall                    1005bb79 f   LIBCMT:fflush.obj
 0001:0005c666       __hw_cw                    1005d666 f   LIBCMT:ieee87.obj
 0001:0005c6f4       ___hw_cw_sse2              1005d6f4 f   LIBCMT:ieee87.obj
 0001:0005d0ee       __unwindfunclet$??1CallTip@@QAE@XZ$0 1005e0ee f   CallTip.obj
 0001:0005d0f9       __unwindfunclet$??1CallTip@@QAE@XZ$1 1005e0f9 f   CallTip.obj
 0001:0005d104       __unwindfunclet$??1CallTip@@QAE@XZ$2 1005e104 f   CallTip.obj
 0001:0005d10f       __ehhandler$??1CallTip@@QAE@XZ 1005e10f f   CallTip.obj
 0001:0005d12a       __unwindfunclet$??0UndoHistory@@QAE@XZ$0 1005e12a f   CellBuffer.obj
 0001:0005d134       __ehhandler$??0UndoHistory@@QAE@XZ 1005e134 f   CellBuffer.obj
 0001:0005d14f       __unwindfunclet$?EnsureUndoRoom@UndoHistory@@AAEXXZ$0 1005e14f f   CellBuffer.obj
 0001:0005d159       __ehhandler$?EnsureUndoRoom@UndoHistory@@AAEXXZ 1005e159 f   CellBuffer.obj
 0001:0005d174       __unwindfunclet$??0SplitVectorWithRangeAdd@@QAE@H@Z$0 1005e174 f   CellBuffer.obj
 0001:0005d17c       __ehhandler$??0SplitVectorWithRangeAdd@@QAE@H@Z 1005e17c f   CellBuffer.obj
 0001:0005d197       __unwindfunclet$?Allocate@Partitioning@@AAEXH@Z$0 1005e197 f   CellBuffer.obj
 0001:0005d1a1       __ehhandler$?Allocate@Partitioning@@AAEXH@Z 1005e1a1 f   CellBuffer.obj
 0001:0005d1bc       __unwindfunclet$??1LineVector@@QAE@XZ$0 1005e1bc f   CellBuffer.obj
 0001:0005d1c4       __ehhandler$??1LineVector@@QAE@XZ 1005e1c4 f   CellBuffer.obj
 0001:0005d1df       __unwindfunclet$??1CellBuffer@@QAE@XZ$0 1005e1df f   CellBuffer.obj
 0001:0005d1e7       __unwindfunclet$??1CellBuffer@@QAE@XZ$1 1005e1e7 f   CellBuffer.obj
 0001:0005d1f2       __unwindfunclet$??1CellBuffer@@QAE@XZ$2 1005e1f2 f   CellBuffer.obj
 0001:0005d1fd       __ehhandler$??1CellBuffer@@QAE@XZ 1005e1fd f   CellBuffer.obj
 0001:0005d218       __unwindfunclet$??0LineVector@@QAE@XZ$0 1005e218 f   CellBuffer.obj
 0001:0005d220       __ehhandler$??0LineVector@@QAE@XZ 1005e220 f   CellBuffer.obj
 0001:0005d23b       __unwindfunclet$??0CellBuffer@@QAE@XZ$0 1005e23b f   CellBuffer.obj
 0001:0005d243       __unwindfunclet$??0CellBuffer@@QAE@XZ$1 1005e243 f   CellBuffer.obj
 0001:0005d24e       __unwindfunclet$??0CellBuffer@@QAE@XZ$2 1005e24e f   CellBuffer.obj
 0001:0005d259       __ehhandler$??0CellBuffer@@QAE@XZ 1005e259 f   CellBuffer.obj
 0001:0005d274       __unwindfunclet$?EnsureData@ContractionState@@AAEXXZ$0 1005e274 f   ContractionState.obj
 0001:0005d27e       __unwindfunclet$?EnsureData@ContractionState@@AAEXXZ$1 1005e27e f   ContractionState.obj
 0001:0005d288       __unwindfunclet$?EnsureData@ContractionState@@AAEXXZ$2 1005e288 f   ContractionState.obj
 0001:0005d292       __unwindfunclet$?EnsureData@ContractionState@@AAEXXZ$3 1005e292 f   ContractionState.obj
 0001:0005d29c       __ehhandler$?EnsureData@ContractionState@@AAEXXZ 1005e29c f   ContractionState.obj
 0001:0005d2b7       __unwindfunclet$?Create@DecorationList@@AAEPAVDecoration@@HH@Z$0 1005e2b7 f   Decoration.obj
 0001:0005d2c1       __ehhandler$?Create@DecorationList@@AAEPAVDecoration@@HH@Z 1005e2c1 f   Decoration.obj
 0001:0005d2dc       __unwindfunclet$??1Document@@UAE@XZ$0 1005e2dc f   Document.obj
 0001:0005d2e4       __unwindfunclet$??1Document@@UAE@XZ$1 1005e2e4 f   Document.obj
 0001:0005d2ef       __unwindfunclet$??1Document@@UAE@XZ$2 1005e2ef f   Document.obj
 0001:0005d2fd       __ehhandler$??1Document@@UAE@XZ 1005e2fd f   Document.obj
 0001:0005d318       __unwindfunclet$??0BuiltinRegex@@QAE@PAVCharClassify@@@Z$0 1005e318 f   Document.obj
 0001:0005d320       __ehhandler$??0BuiltinRegex@@QAE@PAVCharClassify@@@Z 1005e320 f   Document.obj
 0001:0005d33b       __unwindfunclet$??1BuiltinRegex@@UAE@XZ$0 1005e33b f   Document.obj
 0001:0005d343       __unwindfunclet$??1BuiltinRegex@@UAE@XZ$1 1005e343 f   Document.obj
 0001:0005d34e       __ehhandler$??1BuiltinRegex@@UAE@XZ 1005e34e f   Document.obj
 0001:0005d369       __unwindfunclet$?FindText@BuiltinRegex@@UAEJPAVDocument@@HHPBD_N22HPAH@Z$0 1005e369 f   Document.obj
 0001:0005d371       __ehhandler$?FindText@BuiltinRegex@@UAEJPAVDocument@@HHPBD_N22HPAH@Z 1005e371 f   Document.obj
 0001:0005d38c       __unwindfunclet$?SubstituteByPosition@BuiltinRegex@@UAEPBDPAVDocument@@PBDPAH@Z$0 1005e38c f   Document.obj
 0001:0005d394       __ehhandler$?SubstituteByPosition@BuiltinRegex@@UAEPBDPAVDocument@@PBDPAH@Z 1005e394 f   Document.obj
 0001:0005d3af       __unwindfunclet$?CreateRegexSearch@@YAPAVRegexSearchBase@@PAVCharClassify@@@Z$0 1005e3af f   Document.obj
 0001:0005d3b9       __ehhandler$?CreateRegexSearch@@YAPAVRegexSearchBase@@PAVCharClassify@@@Z 1005e3b9 f   Document.obj
 0001:0005d3d4       __unwindfunclet$??0Document@@QAE@XZ$0 1005e3d4 f   Document.obj
 0001:0005d3dc       __unwindfunclet$??0Document@@QAE@XZ$1 1005e3dc f   Document.obj
 0001:0005d3e7       __unwindfunclet$??0Document@@QAE@XZ$2 1005e3e7 f   Document.obj
 0001:0005d3f5       __ehhandler$??0Document@@QAE@XZ 1005e3f5 f   Document.obj
 0001:0005d410       __unwindfunclet$?DrawLine@Editor@@IAEXPAVSurface@@AAVViewStyle@@HHHVPRectangle@@PAVLineLayout@@H@Z$0 1005e410 f   Editor.obj
 0001:0005d41b       __unwindfunclet$?DrawLine@Editor@@IAEXPAVSurface@@AAVViewStyle@@HHHVPRectangle@@PAVLineLayout@@H@Z$1 1005e41b f   Editor.obj
 0001:0005d426       __ehhandler$?DrawLine@Editor@@IAEXPAVSurface@@AAVViewStyle@@HHHVPRectangle@@PAVLineLayout@@H@Z 1005e426 f   Editor.obj
 0001:0005d444       __unwindfunclet$?FormatRange@Editor@@IAEJ_NPAUSci_RangeToFormat@@@Z$0 1005e444 f   Editor.obj
 0001:0005d44c       __unwindfunclet$?FormatRange@Editor@@IAEJ_NPAUSci_RangeToFormat@@@Z$1 1005e44c f   Editor.obj
 0001:0005d454       __unwindfunclet$?FormatRange@Editor@@IAEJ_NPAUSci_RangeToFormat@@@Z$2 1005e454 f   Editor.obj
 0001:0005d45f       __unwindfunclet$?FormatRange@Editor@@IAEJ_NPAUSci_RangeToFormat@@@Z$3 1005e45f f   Editor.obj
 0001:0005d467       __ehhandler$?FormatRange@Editor@@IAEJ_NPAUSci_RangeToFormat@@@Z 1005e467 f   Editor.obj
 0001:0005d492       __unwindfunclet$?WrapCount@Editor@@IAEHH@Z$0 1005e492 f   Editor.obj
 0001:0005d49a       __unwindfunclet$?WrapCount@Editor@@IAEHH@Z$1 1005e49a f   Editor.obj
 0001:0005d4a2       __ehhandler$?WrapCount@Editor@@IAEHH@Z 1005e4a2 f   Editor.obj
 0001:0005d4bd       __unwindfunclet$??0Editor@@IAE@XZ$0 1005e4bd f   Editor.obj
 0001:0005d4c5       __unwindfunclet$??0Editor@@IAE@XZ$1 1005e4c5 f   Editor.obj
 0001:0005d4d0       __unwindfunclet$??0Editor@@IAE@XZ$2 1005e4d0 f   Editor.obj
 0001:0005d4db       __unwindfunclet$??0Editor@@IAE@XZ$3 1005e4db f   Editor.obj
 0001:0005d4e9       __unwindfunclet$??0Editor@@IAE@XZ$4 1005e4e9 f   Editor.obj
 0001:0005d4f7       __unwindfunclet$??0Editor@@IAE@XZ$5 1005e4f7 f   Editor.obj
 0001:0005d505       __unwindfunclet$??0Editor@@IAE@XZ$6 1005e505 f   Editor.obj
 0001:0005d513       __unwindfunclet$??0Editor@@IAE@XZ$7 1005e513 f   Editor.obj
 0001:0005d521       __unwindfunclet$??0Editor@@IAE@XZ$8 1005e521 f   Editor.obj
 0001:0005d52f       __unwindfunclet$??0Editor@@IAE@XZ$9 1005e52f f   Editor.obj
 0001:0005d539       __ehhandler$??0Editor@@IAE@XZ 1005e539 f   Editor.obj
 0001:0005d554       __unwindfunclet$??1Editor@@MAE@XZ$0 1005e554 f   Editor.obj
 0001:0005d55c       __unwindfunclet$??1Editor@@MAE@XZ$1 1005e55c f   Editor.obj
 0001:0005d567       __unwindfunclet$??1Editor@@MAE@XZ$2 1005e567 f   Editor.obj
 0001:0005d572       __unwindfunclet$??1Editor@@MAE@XZ$3 1005e572 f   Editor.obj
 0001:0005d580       __unwindfunclet$??1Editor@@MAE@XZ$4 1005e580 f   Editor.obj
 0001:0005d58e       __unwindfunclet$??1Editor@@MAE@XZ$5 1005e58e f   Editor.obj
 0001:0005d59c       __unwindfunclet$??1Editor@@MAE@XZ$6 1005e59c f   Editor.obj
 0001:0005d5aa       __unwindfunclet$??1Editor@@MAE@XZ$7 1005e5aa f   Editor.obj
 0001:0005d5b8       __unwindfunclet$??1Editor@@MAE@XZ$8 1005e5b8 f   Editor.obj
 0001:0005d5c6       __ehhandler$??1Editor@@MAE@XZ 1005e5c6 f   Editor.obj
 0001:0005d5e1       __unwindfunclet$?PositionFromLocation@Editor@@IAEHVPoint@@_N1@Z$0 1005e5e1 f   Editor.obj
 0001:0005d5e9       __unwindfunclet$?PositionFromLocation@Editor@@IAEHVPoint@@_N1@Z$1 1005e5e9 f   Editor.obj
 0001:0005d5f1       __ehhandler$?PositionFromLocation@Editor@@IAEHVPoint@@_N1@Z 1005e5f1 f   Editor.obj
 0001:0005d60c       __unwindfunclet$?DisplayFromPosition@Editor@@IAEHH@Z$0 1005e60c f   Editor.obj
 0001:0005d614       __unwindfunclet$?DisplayFromPosition@Editor@@IAEHH@Z$1 1005e614 f   Editor.obj
 0001:0005d61c       __ehhandler$?DisplayFromPosition@Editor@@IAEHH@Z 1005e61c f   Editor.obj
 0001:0005d637       __unwindfunclet$?WrapOneLine@Editor@@IAE_NPAVSurface@@H@Z$0 1005e637 f   Editor.obj
 0001:0005d63f       __ehhandler$?WrapOneLine@Editor@@IAE_NPAVSurface@@H@Z 1005e63f f   Editor.obj
 0001:0005d65a       __unwindfunclet$?LinesSplit@Editor@@IAEXH@Z$0 1005e65a f   Editor.obj
 0001:0005d662       __unwindfunclet$?LinesSplit@Editor@@IAEXH@Z$1 1005e662 f   Editor.obj
 0001:0005d66a       __ehhandler$?LinesSplit@Editor@@IAEXH@Z 1005e66a f   Editor.obj
 0001:0005d685       __unwindfunclet$?CopyRangeToClipboard@Editor@@IAEXHH@Z$0 1005e685 f   Editor.obj
 0001:0005d68d       __ehhandler$?CopyRangeToClipboard@Editor@@IAEXHH@Z 1005e68d f   Editor.obj
 0001:0005d6a8       __unwindfunclet$?CopyText@Editor@@IAEXHPBD@Z$0 1005e6a8 f   Editor.obj
 0001:0005d6b0       __ehhandler$?CopyText@Editor@@IAEXHPBD@Z 1005e6b0 f   Editor.obj
 0001:0005d6cb       __unwindfunclet$?SetDocPointer@Editor@@IAEXPAVDocument@@@Z$0 1005e6cb f   Editor.obj
 0001:0005d6d5       __ehhandler$?SetDocPointer@Editor@@IAEXPAVDocument@@@Z 1005e6d5 f   Editor.obj
 0001:0005d6f0       __unwindfunclet$?RefreshStyleData@Editor@@IAEXXZ$0 1005e6f0 f   Editor.obj
 0001:0005d6f8       __ehhandler$?RefreshStyleData@Editor@@IAEXXZ 1005e6f8 f   Editor.obj
 0001:0005d713       __unwindfunclet$?LocationFromPosition@Editor@@IAE?AVPoint@@H@Z$0 1005e713 f   Editor.obj
 0001:0005d71b       __unwindfunclet$?LocationFromPosition@Editor@@IAE?AVPoint@@H@Z$1 1005e71b f   Editor.obj
 0001:0005d723       __ehhandler$?LocationFromPosition@Editor@@IAE?AVPoint@@H@Z 1005e723 f   Editor.obj
 0001:0005d73e       __unwindfunclet$?PositionFromLineX@Editor@@IAEHHH@Z$0 1005e73e f   Editor.obj
 0001:0005d746       __unwindfunclet$?PositionFromLineX@Editor@@IAEHHH@Z$1 1005e746 f   Editor.obj
 0001:0005d74e       __ehhandler$?PositionFromLineX@Editor@@IAEHHH@Z 1005e74e f   Editor.obj
 0001:0005d769       __unwindfunclet$?WrapLines@Editor@@IAE_N_NH@Z$0 1005e769 f   Editor.obj
 0001:0005d771       __ehhandler$?WrapLines@Editor@@IAE_N_NH@Z 1005e771 f   Editor.obj
 0001:0005d78c       __unwindfunclet$?TextWidth@Editor@@IAEHHPBD@Z$0 1005e78c f   Editor.obj
 0001:0005d794       __ehhandler$?TextWidth@Editor@@IAEHHPBD@Z 1005e794 f   Editor.obj
 0001:0005d7af       __unwindfunclet$?StartEndDisplayLine@Editor@@IAEHH_N@Z$0 1005e7af f   Editor.obj
 0001:0005d7b7       __unwindfunclet$?StartEndDisplayLine@Editor@@IAEHH_N@Z$1 1005e7b7 f   Editor.obj
 0001:0005d7bf       __ehhandler$?StartEndDisplayLine@Editor@@IAEHH_N@Z 1005e7bf f   Editor.obj
 0001:0005d7da       __unwindfunclet$?Paint@Editor@@IAEXPAVSurface@@VPRectangle@@@Z$0 1005e7da f   Editor.obj
 0001:0005d7e2       __unwindfunclet$?Paint@Editor@@IAEXPAVSurface@@VPRectangle@@@Z$1 1005e7e2 f   Editor.obj
 0001:0005d7ea       __ehhandler$?Paint@Editor@@IAEXPAVSurface@@VPRectangle@@@Z 1005e7ea f   Editor.obj
 0001:0005d808       __unwindfunclet$?WndProc@Editor@@UAEJIKJ@Z$0 1005e808 f   Editor.obj
 0001:0005d810       __unwindfunclet$?WndProc@Editor@@UAEJIKJ@Z$1 1005e810 f   Editor.obj
 0001:0005d81a       __ehhandler$?WndProc@Editor@@UAEJIKJ@Z 1005e81a f   Editor.obj
 0001:0005d835       __unwindfunclet$?AddCharUTF@Editor@@MAEXPADI_N@Z$0 1005e835 f   Editor.obj
 0001:0005d83d       __ehhandler$?AddCharUTF@Editor@@MAEXPADI_N@Z 1005e83d f   Editor.obj
 0001:0005d858       __unwindfunclet$?CopyAllowLine@Editor@@MAEXXZ$0 1005e858 f   Editor.obj
 0001:0005d860       __ehhandler$?CopyAllowLine@Editor@@MAEXXZ 1005e860 f   Editor.obj
 0001:0005d87b       __unwindfunclet$?WordListsToStrings@@YAPAPADQAPAVWordList@@@Z$0 1005e87b f   ExternalLexer.obj
 0001:0005d883       __ehhandler$?WordListsToStrings@@YAPAPADQAPAVWordList@@@Z 1005e883 f   ExternalLexer.obj
 0001:0005d89e       __unwindfunclet$??0LexerLibrary@@QAE@PBD@Z$0 1005e89e f   ExternalLexer.obj
 0001:0005d8ac       __unwindfunclet$??0LexerLibrary@@QAE@PBD@Z$1 1005e8ac f   ExternalLexer.obj
 0001:0005d8b9       __ehhandler$??0LexerLibrary@@QAE@PBD@Z 1005e8b9 f   ExternalLexer.obj
 0001:0005d8e1       __unwindfunclet$?LoadLexerLibrary@LexerManager@@AAEXPBD@Z$0 1005e8e1 f   ExternalLexer.obj
 0001:0005d8eb       __ehhandler$?LoadLexerLibrary@LexerManager@@AAEXPBD@Z 1005e8eb f   ExternalLexer.obj
 0001:0005d906       __unwindfunclet$??1LexerLibrary@@QAE@XZ$0 1005e906 f   ExternalLexer.obj
 0001:0005d911       __ehhandler$??1LexerLibrary@@QAE@XZ 1005e911 f   ExternalLexer.obj
 0001:0005d92c       __unwindfunclet$?ColouriseNumber@@YAXAAVStyleContext@@AA_N@Z$0 1005e92c f   LexAda.obj
 0001:0005d934       __ehhandler$?ColouriseNumber@@YAXAAVStyleContext@@AA_N@Z 1005e934 f   LexAda.obj
 0001:0005d94f       __unwindfunclet$?ColouriseLabel@@YAXAAVStyleContext@@AAVWordList@@AA_N@Z$0 1005e94f f   LexAda.obj
 0001:0005d957       __ehhandler$?ColouriseLabel@@YAXAAVStyleContext@@AAVWordList@@AA_N@Z 1005e957 f   LexAda.obj
 0001:0005d972       __unwindfunclet$?ColouriseWord@@YAXAAVStyleContext@@AAVWordList@@AA_N@Z$0 1005e972 f   LexAda.obj
 0001:0005d97a       __ehhandler$?ColouriseWord@@YAXAAVStyleContext@@AAVWordList@@AA_N@Z 1005e97a f   LexAda.obj
 0001:0005d995       __unwindfunclet$?ColouriseAsyDoc@@YAXIHHQAPAVWordList@@AAVAccessor@@@Z$0 1005e995 f   LexASY.obj
 0001:0005d99d       __unwindfunclet$?ColouriseAsyDoc@@YAXIHHQAPAVWordList@@AAVAccessor@@@Z$1 1005e99d f   LexASY.obj
 0001:0005d9a5       __ehhandler$?ColouriseAsyDoc@@YAXIHHQAPAVWordList@@AAVAccessor@@@Z 1005e9a5 f   LexASY.obj
 0001:0005d9cd       __unwindfunclet$?ColouriseBashDoc@@YAXIHHQAPAVWordList@@AAVAccessor@@@Z$0 1005e9cd f   LexBash.obj
 0001:0005d9d8       __unwindfunclet$?ColouriseBashDoc@@YAXIHHQAPAVWordList@@AAVAccessor@@@Z$1 1005e9d8 f   LexBash.obj
 0001:0005d9e0       __unwindfunclet$?ColouriseBashDoc@@YAXIHHQAPAVWordList@@AAVAccessor@@@Z$2 1005e9e0 f   LexBash.obj
 0001:0005d9eb       __unwindfunclet$?ColouriseBashDoc@@YAXIHHQAPAVWordList@@AAVAccessor@@@Z$3 1005e9eb f   LexBash.obj
 0001:0005d9f6       __unwindfunclet$?ColouriseBashDoc@@YAXIHHQAPAVWordList@@AAVAccessor@@@Z$4 1005e9f6 f   LexBash.obj
 0001:0005da01       __unwindfunclet$?ColouriseBashDoc@@YAXIHHQAPAVWordList@@AAVAccessor@@@Z$5 1005ea01 f   LexBash.obj
 0001:0005da09       __unwindfunclet$?ColouriseBashDoc@@YAXIHHQAPAVWordList@@AAVAccessor@@@Z$6 1005ea09 f   LexBash.obj
 0001:0005da11       __unwindfunclet$?ColouriseBashDoc@@YAXIHHQAPAVWordList@@AAVAccessor@@@Z$7 1005ea11 f   LexBash.obj
 0001:0005da1c       __unwindfunclet$?ColouriseBashDoc@@YAXIHHQAPAVWordList@@AAVAccessor@@@Z$8 1005ea1c f   LexBash.obj
 0001:0005da24       __ehhandler$?ColouriseBashDoc@@YAXIHHQAPAVWordList@@AAVAccessor@@@Z 1005ea24 f   LexBash.obj
 0001:0005da4f       __unwindfunclet$?ColouriseClarionDoc@@YAXIHHQAPAVWordList@@AAVAccessor@@_N@Z$0 1005ea4f f   LexCLW.obj
 0001:0005da5a       __unwindfunclet$?ColouriseClarionDoc@@YAXIHHQAPAVWordList@@AAVAccessor@@_N@Z$1 1005ea5a f   LexCLW.obj
 0001:0005da65       __unwindfunclet$?ColouriseClarionDoc@@YAXIHHQAPAVWordList@@AAVAccessor@@_N@Z$2 1005ea65 f   LexCLW.obj
 0001:0005da70       __ehhandler$?ColouriseClarionDoc@@YAXIHHQAPAVWordList@@AAVAccessor@@_N@Z 1005ea70 f   LexCLW.obj
 0001:0005da9b       __unwindfunclet$?ColouriseCppDoc@@YAXIHHQAPAVWordList@@AAVAccessor@@_N@Z$0 1005ea9b f   LexCPP.obj
 0001:0005daa6       __unwindfunclet$?ColouriseCppDoc@@YAXIHHQAPAVWordList@@AAVAccessor@@_N@Z$1 1005eaa6 f   LexCPP.obj
 0001:0005daae       __unwindfunclet$?ColouriseCppDoc@@YAXIHHQAPAVWordList@@AAVAccessor@@_N@Z$2 1005eaae f   LexCPP.obj
 0001:0005dab9       __unwindfunclet$?ColouriseCppDoc@@YAXIHHQAPAVWordList@@AAVAccessor@@_N@Z$3 1005eab9 f   LexCPP.obj
 0001:0005dac1       __unwindfunclet$?ColouriseCppDoc@@YAXIHHQAPAVWordList@@AAVAccessor@@_N@Z$4 1005eac1 f   LexCPP.obj
 0001:0005dac9       __ehhandler$?ColouriseCppDoc@@YAXIHHQAPAVWordList@@AAVAccessor@@_N@Z 1005eac9 f   LexCPP.obj
 0001:0005daf4       __unwindfunclet$?ColouriseHyperTextDoc@@YAXIHHQAPAVWordList@@AAVAccessor@@_N@Z$0 1005eaf4 f   LexHTML.obj
 0001:0005daff       __unwindfunclet$?ColouriseHyperTextDoc@@YAXIHHQAPAVWordList@@AAVAccessor@@_N@Z$1 1005eaff f   LexHTML.obj
 0001:0005db0a       __unwindfunclet$?ColouriseHyperTextDoc@@YAXIHHQAPAVWordList@@AAVAccessor@@_N@Z$2 1005eb0a f   LexHTML.obj
 0001:0005db15       __ehhandler$?ColouriseHyperTextDoc@@YAXIHHQAPAVWordList@@AAVAccessor@@_N@Z 1005eb15 f   LexHTML.obj
 0001:0005db40       __unwindfunclet$?ColouriseLuaDoc@@YAXIHHQAPAVWordList@@AAVAccessor@@@Z$0 1005eb40 f   LexLua.obj
 0001:0005db48       __unwindfunclet$?ColouriseLuaDoc@@YAXIHHQAPAVWordList@@AAVAccessor@@@Z$1 1005eb48 f   LexLua.obj
 0001:0005db50       __unwindfunclet$?ColouriseLuaDoc@@YAXIHHQAPAVWordList@@AAVAccessor@@@Z$2 1005eb50 f   LexLua.obj
 0001:0005db5b       __unwindfunclet$?ColouriseLuaDoc@@YAXIHHQAPAVWordList@@AAVAccessor@@@Z$3 1005eb5b f   LexLua.obj
 0001:0005db66       __unwindfunclet$?ColouriseLuaDoc@@YAXIHHQAPAVWordList@@AAVAccessor@@@Z$4 1005eb66 f   LexLua.obj
 0001:0005db6e       __ehhandler$?ColouriseLuaDoc@@YAXIHHQAPAVWordList@@AAVAccessor@@@Z 1005eb6e f   LexLua.obj
 0001:0005db96       __unwindfunclet$??0SString@@QAE@PBD@Z$0 1005eb96 f   LexMPT.obj
 0001:0005db9e       __ehhandler$??0SString@@QAE@PBD@Z 1005eb9e f   LexMPT.obj
 0001:0005dbb9       __unwindfunclet$?ColourizeLotDoc@@YAXIHHQAPAVWordList@@AAVAccessor@@@Z$0 1005ebb9 f   LexMPT.obj
 0001:0005dbc1       __ehhandler$?ColourizeLotDoc@@YAXIHHQAPAVWordList@@AAVAccessor@@@Z 1005ebc1 f   LexMPT.obj
 0001:0005dbdc       __unwindfunclet$?ColourisePascalDoc@@YAXIHHQAPAVWordList@@AAVAccessor@@@Z$0 1005ebdc f   LexPascal.obj
 0001:0005dbe4       __unwindfunclet$?ColourisePascalDoc@@YAXIHHQAPAVWordList@@AAVAccessor@@@Z$1 1005ebe4 f   LexPascal.obj
 0001:0005dbec       __unwindfunclet$?ColourisePascalDoc@@YAXIHHQAPAVWordList@@AAVAccessor@@@Z$2 1005ebec f   LexPascal.obj
 0001:0005dbf4       __unwindfunclet$?ColourisePascalDoc@@YAXIHHQAPAVWordList@@AAVAccessor@@@Z$3 1005ebf4 f   LexPascal.obj
 0001:0005dbfc       __unwindfunclet$?ColourisePascalDoc@@YAXIHHQAPAVWordList@@AAVAccessor@@@Z$4 1005ebfc f   LexPascal.obj
 0001:0005dc04       __ehhandler$?ColourisePascalDoc@@YAXIHHQAPAVWordList@@AAVAccessor@@@Z 1005ec04 f   LexPascal.obj
 0001:0005dc1f       __unwindfunclet$?ClassifyPascalPreprocessorFoldPoint@@YAXAAH0IAAVAccessor@@@Z$0 1005ec1f f   LexPascal.obj
 0001:0005dc27       __ehhandler$?ClassifyPascalPreprocessorFoldPoint@@YAXAAH0IAAVAccessor@@@Z 1005ec27 f   LexPascal.obj
 0001:0005dc4c       __unwindfunclet$?SkipWhiteSpace@@YAIIIAAVAccessor@@_N@Z$0 1005ec4c f   LexPascal.obj
 0001:0005dc54       __ehhandler$?SkipWhiteSpace@@YAIIIAAVAccessor@@_N@Z 1005ec54 f   LexPascal.obj
 0001:0005dc6f       __unwindfunclet$?ClassifyPascalWordFoldPoint@@YAXAAH0HIIIAAVAccessor@@@Z$0 1005ec6f f   LexPascal.obj
 0001:0005dc77       __unwindfunclet$?ClassifyPascalWordFoldPoint@@YAXAAH0HIIIAAVAccessor@@@Z$1 1005ec77 f   LexPascal.obj
 0001:0005dc7f       __ehhandler$?ClassifyPascalWordFoldPoint@@YAXAAH0HIIIAAVAccessor@@@Z 1005ec7f f   LexPascal.obj
 0001:0005dca4       __unwindfunclet$?FoldPascalDoc@@YAXIHHQAPAVWordList@@AAVAccessor@@@Z$0 1005eca4 f   LexPascal.obj
 0001:0005dcac       __ehhandler$?FoldPascalDoc@@YAXIHHQAPAVWordList@@AAVAccessor@@@Z 1005ecac f   LexPascal.obj
 0001:0005dcc7       __unwindfunclet$?ColourisePerlDoc@@YAXIHHQAPAVWordList@@AAVAccessor@@@Z$0 1005ecc7 f   LexPerl.obj
 0001:0005dcd2       __unwindfunclet$?ColourisePerlDoc@@YAXIHHQAPAVWordList@@AAVAccessor@@@Z$1 1005ecd2 f   LexPerl.obj
 0001:0005dcdd       __unwindfunclet$?ColourisePerlDoc@@YAXIHHQAPAVWordList@@AAVAccessor@@@Z$2 1005ecdd f   LexPerl.obj
 0001:0005dce5       __unwindfunclet$?ColourisePerlDoc@@YAXIHHQAPAVWordList@@AAVAccessor@@@Z$3 1005ece5 f   LexPerl.obj
 0001:0005dcf0       __unwindfunclet$?ColourisePerlDoc@@YAXIHHQAPAVWordList@@AAVAccessor@@@Z$4 1005ecf0 f   LexPerl.obj
 0001:0005dcfb       __unwindfunclet$?ColourisePerlDoc@@YAXIHHQAPAVWordList@@AAVAccessor@@@Z$5 1005ecfb f   LexPerl.obj
 0001:0005dd06       __unwindfunclet$?ColourisePerlDoc@@YAXIHHQAPAVWordList@@AAVAccessor@@@Z$6 1005ed06 f   LexPerl.obj
 0001:0005dd11       __unwindfunclet$?ColourisePerlDoc@@YAXIHHQAPAVWordList@@AAVAccessor@@@Z$7 1005ed11 f   LexPerl.obj
 0001:0005dd1c       __unwindfunclet$?ColourisePerlDoc@@YAXIHHQAPAVWordList@@AAVAccessor@@@Z$8 1005ed1c f   LexPerl.obj
 0001:0005dd27       __unwindfunclet$?ColourisePerlDoc@@YAXIHHQAPAVWordList@@AAVAccessor@@@Z$9 1005ed27 f   LexPerl.obj
 0001:0005dd32       __unwindfunclet$?ColourisePerlDoc@@YAXIHHQAPAVWordList@@AAVAccessor@@@Z$10 1005ed32 f   LexPerl.obj
 0001:0005dd3d       __unwindfunclet$?ColourisePerlDoc@@YAXIHHQAPAVWordList@@AAVAccessor@@@Z$11 1005ed3d f   LexPerl.obj
 0001:0005dd48       __unwindfunclet$?ColourisePerlDoc@@YAXIHHQAPAVWordList@@AAVAccessor@@@Z$12 1005ed48 f   LexPerl.obj
 0001:0005dd53       __unwindfunclet$?ColourisePerlDoc@@YAXIHHQAPAVWordList@@AAVAccessor@@@Z$13 1005ed53 f   LexPerl.obj
 0001:0005dd5e       __unwindfunclet$?ColourisePerlDoc@@YAXIHHQAPAVWordList@@AAVAccessor@@@Z$14 1005ed5e f   LexPerl.obj
 0001:0005dd69       __unwindfunclet$?ColourisePerlDoc@@YAXIHHQAPAVWordList@@AAVAccessor@@@Z$15 1005ed69 f   LexPerl.obj
 0001:0005dd71       __ehhandler$?ColourisePerlDoc@@YAXIHHQAPAVWordList@@AAVAccessor@@@Z 1005ed71 f   LexPerl.obj
 0001:0005dd9c       __unwindfunclet$?ColourisePowerProDoc@@YAXIHHQAPAVWordList@@AAVAccessor@@_N@Z$0 1005ed9c f   LexPowerPro.obj
 0001:0005dda4       __unwindfunclet$?ColourisePowerProDoc@@YAXIHHQAPAVWordList@@AAVAccessor@@_N@Z$1 1005eda4 f   LexPowerPro.obj
 0001:0005ddac       __ehhandler$?ColourisePowerProDoc@@YAXIHHQAPAVWordList@@AAVAccessor@@_N@Z 1005edac f   LexPowerPro.obj
 0001:0005ddd4       __unwindfunclet$?FoldPowerProDoc@@YAXIHHQAPAVWordList@@AAVAccessor@@@Z$0 1005edd4 f   LexPowerPro.obj
 0001:0005dddf       __unwindfunclet$?FoldPowerProDoc@@YAXIHHQAPAVWordList@@AAVAccessor@@@Z$1 1005eddf f   LexPowerPro.obj
 0001:0005dde7       __ehhandler$?FoldPowerProDoc@@YAXIHHQAPAVWordList@@AAVAccessor@@@Z 1005ede7 f   LexPowerPro.obj
 0001:0005de0f       __unwindfunclet$?ColouriseNumber@@YAXAAVStyleContext@@AA_N@Z$0 1005ee0f f   LexSpice.obj
 0001:0005de17       __ehhandler$?ColouriseNumber@@YAXAAVStyleContext@@AA_N@Z 1005ee17 f   LexSpice.obj
 0001:0005de32       __unwindfunclet$?ColouriseWord@@YAXAAVStyleContext@@AAVWordList@@11AA_N@Z$0 1005ee32 f   LexSpice.obj
 0001:0005de3a       __ehhandler$?ColouriseWord@@YAXAAVStyleContext@@AAVWordList@@11AA_N@Z 1005ee3a f   LexSpice.obj
 0001:0005de55       __unwindfunclet$?FoldNoBoxVHDLDoc@@YAXIHHAAVAccessor@@@Z$0 1005ee55 f   LexVHDL.obj
 0001:0005de60       __ehhandler$?FoldNoBoxVHDLDoc@@YAXIHHAAVAccessor@@@Z 1005ee60 f   LexVHDL.obj
 0001:0005de8b       __unwindfunclet$?SetXPM@LineMarker@@QAEXPBD@Z$0 1005ee8b f   LineMarker.obj
 0001:0005de95       __ehhandler$?SetXPM@LineMarker@@QAEXPBD@Z 1005ee95 f   LineMarker.obj
 0001:0005deb0       __unwindfunclet$??1LineLevels@@UAE@XZ$0 1005eeb0 f   PerLine.obj
 0001:0005deb8       __ehhandler$??1LineLevels@@UAE@XZ 1005eeb8 f   PerLine.obj
 0001:0005ded3       __unwindfunclet$??1LineState@@UAE@XZ$0 1005eed3 f   PerLine.obj
 0001:0005dedb       __ehhandler$??1LineState@@UAE@XZ 1005eedb f   PerLine.obj
 0001:0005def6       __unwindfunclet$??1LineMarkers@@UAE@XZ$0 1005eef6 f   PerLine.obj
 0001:0005defe       __unwindfunclet$??1LineMarkers@@UAE@XZ$1 1005eefe f   PerLine.obj
 0001:0005df09       __ehhandler$??1LineMarkers@@UAE@XZ 1005ef09 f   PerLine.obj
 0001:0005df24       __unwindfunclet$??1LineAnnotation@@UAE@XZ$0 1005ef24 f   PerLine.obj
 0001:0005df2c       __unwindfunclet$??1LineAnnotation@@UAE@XZ$1 1005ef2c f   PerLine.obj
 0001:0005df37       __ehhandler$??1LineAnnotation@@UAE@XZ 1005ef37 f   PerLine.obj
 0001:0005df52       __ehhandler$?ControlWndProc@ListBoxX@@CGJPAUHWND__@@IIJ@Z 1005ef52 f   PlatWin.obj
 0001:0005df77       __unwindfunclet$??0TextWide@@QAE@PBDH_NH@Z$0 1005ef77 f   PlatWin.obj
 0001:0005df7f       __ehhandler$??0TextWide@@QAE@PBDH_NH@Z 1005ef7f f   PlatWin.obj
 0001:0005df9a       __unwindfunclet$?MeasureWidths@SurfaceImpl@@UAEXAAVFont@@PBDHPAH@Z$0 1005ef9a f   PlatWin.obj
 0001:0005dfa5       __unwindfunclet$?MeasureWidths@SurfaceImpl@@UAEXAAVFont@@PBDHPAH@Z$2 1005efa5 f   PlatWin.obj
 0001:0005dfad       __ehhandler$?MeasureWidths@SurfaceImpl@@UAEXAAVFont@@PBDHPAH@Z 1005efad f   PlatWin.obj
 0001:0005dfd8       __unwindfunclet$??0ListBoxX@@QAE@XZ$0 1005efd8 f   PlatWin.obj
 0001:0005dfe0       __ehhandler$??0ListBoxX@@QAE@XZ 1005efe0 f   PlatWin.obj
 0001:0005dffb       __unwindfunclet$??1ListBoxX@@UAE@XZ$0 1005effb f   PlatWin.obj
 0001:0005e003       __unwindfunclet$??1ListBoxX@@UAE@XZ$1 1005f003 f   PlatWin.obj
 0001:0005e00e       __ehhandler$??1ListBoxX@@UAE@XZ 1005f00e f   PlatWin.obj
 0001:0005e029       __unwindfunclet$?Allocate@ListBox@@SAPAV1@XZ$0 1005f029 f   PlatWin.obj
 0001:0005e033       __ehhandler$?Allocate@ListBox@@SAPAV1@XZ 1005f033 f   PlatWin.obj
 0001:0005e04e       __unwindfunclet$?DrawTextCommon@SurfaceImpl@@QAEXVPRectangle@@AAVFont@@HPBDHI@Z$0 1005f04e f   PlatWin.obj
 0001:0005e056       __ehhandler$?DrawTextCommon@SurfaceImpl@@QAEXVPRectangle@@AAVFont@@HPBDHI@Z 1005f056 f   PlatWin.obj
 0001:0005e07e       __unwindfunclet$??0PositionCache@@QAE@XZ$0 1005f07e f   PositionCache.obj
 0001:0005e088       __ehhandler$??0PositionCache@@QAE@XZ 1005f088 f   PositionCache.obj
 0001:0005e0a3       __unwindfunclet$?SetSize@PositionCache@@QAEXI@Z$0 1005f0a3 f   PositionCache.obj
 0001:0005e0ad       __ehhandler$?SetSize@PositionCache@@QAEXI@Z 1005f0ad f   PositionCache.obj
 0001:0005e0c8       __unwindfunclet$?Retrieve@LineLayoutCache@@QAEPAVLineLayout@@HHHHHH@Z$0 1005f0c8 f   PositionCache.obj
 0001:0005e0d2       __unwindfunclet$?Retrieve@LineLayoutCache@@QAEPAVLineLayout@@HHHHHH@Z$1 1005f0d2 f   PositionCache.obj
 0001:0005e0dc       __ehhandler$?Retrieve@LineLayoutCache@@QAEPAVLineLayout@@HHHHHH@Z 1005f0dc f   PositionCache.obj
 0001:0005e0f7       __unwindfunclet$??0SString@@QAE@PBDII@Z$0 1005f0f7 f   PropSet.obj
 0001:0005e0ff       __ehhandler$??0SString@@QAE@PBDII@Z 1005f0ff f   PropSet.obj
 0001:0005e11a       __unwindfunclet$?ExpandAllInPlace@@YAHABVPropSet@@AAVSString@@HABUVarChain@@@Z$0 1005f11a f   PropSet.obj
 0001:0005e122       __unwindfunclet$?ExpandAllInPlace@@YAHABVPropSet@@AAVSString@@HABUVarChain@@@Z$1 1005f122 f   PropSet.obj
 0001:0005e12a       __ehhandler$?ExpandAllInPlace@@YAHABVPropSet@@AAVSString@@HABUVarChain@@@Z 1005f12a f   PropSet.obj
 0001:0005e145       __unwindfunclet$?GetExpanded@PropSet@@QBE?AVSString@@PBD@Z$0 1005f145 f   PropSet.obj
 0001:0005e15e       __ehhandler$?GetExpanded@PropSet@@QBE?AVSString@@PBD@Z 1005f15e f   PropSet.obj
 0001:0005e179       __unwindfunclet$?GetInt@PropSet@@QBEHPBDH@Z$0 1005f179 f   PropSet.obj
 0001:0005e181       __ehhandler$?GetInt@PropSet@@QBEHPBDH@Z 1005f181 f   PropSet.obj
 0001:0005e19c       __unwindfunclet$??0RunStyles@@QAE@XZ$0 1005f19c f   RunStyles.obj
 0001:0005e1a6       __ehhandler$??0RunStyles@@QAE@XZ 1005f1a6 f   RunStyles.obj
 0001:0005e1c1       __unwindfunclet$??0ScintillaBase@@IAE@XZ$0 1005f1c1 f   ScintillaBase.obj
 0001:0005e1c9       __unwindfunclet$??0ScintillaBase@@IAE@XZ$1 1005f1c9 f   ScintillaBase.obj
 0001:0005e1d7       __unwindfunclet$??0ScintillaBase@@IAE@XZ$2 1005f1d7 f   ScintillaBase.obj
 0001:0005e1e5       __unwindfunclet$??0ScintillaBase@@IAE@XZ$3 1005f1e5 f   ScintillaBase.obj
 0001:0005e1f3       __unwindfunclet$??0ScintillaBase@@IAE@XZ$4 1005f1f3 f   ScintillaBase.obj
 0001:0005e201       __ehhandler$??0ScintillaBase@@IAE@XZ 1005f201 f   ScintillaBase.obj
 0001:0005e21c       __unwindfunclet$?AutoCompleteCompleted@ScintillaBase@@IAEXXZ$0 1005f21c f   ScintillaBase.obj
 0001:0005e224       __ehhandler$?AutoCompleteCompleted@ScintillaBase@@IAEXXZ 1005f224 f   ScintillaBase.obj
 0001:0005e24c       __unwindfunclet$?Colourise@ScintillaBase@@IAEXHH@Z$0 1005f24c f   ScintillaBase.obj
 0001:0005e257       __ehhandler$?Colourise@ScintillaBase@@IAEXHH@Z 1005f257 f   ScintillaBase.obj
 0001:0005e27f       __unwindfunclet$??1ScintillaBase@@MAE@XZ$0 1005f27f f   ScintillaBase.obj
 0001:0005e287       __unwindfunclet$??1ScintillaBase@@MAE@XZ$1 1005f287 f   ScintillaBase.obj
 0001:0005e295       __unwindfunclet$??1ScintillaBase@@MAE@XZ$2 1005f295 f   ScintillaBase.obj
 0001:0005e2a3       __unwindfunclet$??1ScintillaBase@@MAE@XZ$3 1005f2a3 f   ScintillaBase.obj
 0001:0005e2b1       __unwindfunclet$??1ScintillaBase@@MAE@XZ$4 1005f2b1 f   ScintillaBase.obj
 0001:0005e2bf       __ehhandler$??1ScintillaBase@@MAE@XZ 1005f2bf f   ScintillaBase.obj
 0001:0005e2da       __unwindfunclet$?ImeStartComposition@ScintillaWin@@AAEXXZ$0 1005f2da f   ScintillaWin.obj
 0001:0005e2e2       __ehhandler$?ImeStartComposition@ScintillaWin@@AAEXXZ 1005f2e2 f   ScintillaWin.obj
 0001:0005e307       __unwindfunclet$?RealizeWindowPalette@ScintillaWin@@AAEX_N@Z$0 1005f307 f   ScintillaWin.obj
 0001:0005e30f       __ehhandler$?RealizeWindowPalette@ScintillaWin@@AAEX_N@Z 1005f30f f   ScintillaWin.obj
 0001:0005e32a       __unwindfunclet$?FullPaintDC@ScintillaWin@@AAEXPAUHDC__@@@Z$0 1005f32a f   ScintillaWin.obj
 0001:0005e332       __ehhandler$?FullPaintDC@ScintillaWin@@AAEXPAUHDC__@@@Z 1005f332 f   ScintillaWin.obj
 0001:0005e34d       __ehhandler$?DragOver@ScintillaWin@@QAGJKU_POINTL@@PAK@Z 1005f34d f   ScintillaWin.obj
 0001:0005e368       __ehhandler$?DragLeave@ScintillaWin@@QAGJXZ 1005f368 f   ScintillaWin.obj
 0001:0005e383       __ehhandler$?Drop@ScintillaWin@@QAGJPAUIDataObject@@KU_POINTL@@PAK@Z 1005f383 f   ScintillaWin.obj
 0001:0005e39e       __ehhandler$?CTWndProc@ScintillaWin@@CGJPAUHWND__@@IIJ@Z 1005f39e f   ScintillaWin.obj
 0001:0005e3c3       __ehhandler$?FormatEnumerator_Clone@@YGJPAVFormatEnumerator@@PAPAUIEnumFORMATETC@@@Z 1005f3c3 f   ScintillaWin.obj
 0001:0005e3de       __ehhandler$?DataObject_EnumFormatEtc@@YGJPAVDataObject@@KPAPAUIEnumFORMATETC@@@Z 1005f3de f   ScintillaWin.obj
 0001:0005e3f9       __ehhandler$?DropTarget_DragEnter@@YGJPAVDropTarget@@PAUIDataObject@@KU_POINTL@@PAK@Z 1005f3f9 f   ScintillaWin.obj
 0001:0005e414       __ehhandler$?DropTarget_DragOver@@YGJPAVDropTarget@@KU_POINTL@@PAK@Z 1005f414 f   ScintillaWin.obj
 0001:0005e42f       __ehhandler$?DropTarget_DragLeave@@YGJPAVDropTarget@@@Z 1005f42f f   ScintillaWin.obj
 0001:0005e44a       __ehhandler$?DropTarget_Drop@@YGJPAVDropTarget@@PAUIDataObject@@KU_POINTL@@PAK@Z 1005f44a f   ScintillaWin.obj
 0001:0005e465       __unwindfunclet$?SWndProc@ScintillaWin@@CGJPAUHWND__@@IIJ@Z$4 1005f465 f   ScintillaWin.obj
 0001:0005e46f       __ehhandler$?SWndProc@ScintillaWin@@CGJPAUHWND__@@IIJ@Z 1005f46f f   ScintillaWin.obj
 0001:0005e48a       __unwindfunclet$?WndPaint@ScintillaWin@@AAEJK@Z$0 1005f48a f   ScintillaWin.obj
 0001:0005e492       __ehhandler$?WndPaint@ScintillaWin@@AAEJK@Z 1005f492 f   ScintillaWin.obj
 0001:0005e4b7       __ehhandler$?WndProc@ScintillaWin@@UAEJIKJ@Z 1005f4b7 f   ScintillaWin.obj
 0001:0005e4dc       __unwindfunclet$?Copy@ScintillaWin@@EAEXXZ$0 1005f4dc f   ScintillaWin.obj
 0001:0005e4e4       __ehhandler$?Copy@ScintillaWin@@EAEXXZ 1005f4e4 f   ScintillaWin.obj
 0001:0005e4ff       __unwindfunclet$?CopyAllowLine@ScintillaWin@@EAEXXZ$0 1005f4ff f   ScintillaWin.obj
 0001:0005e507       __ehhandler$?CopyAllowLine@ScintillaWin@@EAEXXZ 1005f507 f   ScintillaWin.obj
 0001:0005e522       __unwindfunclet$??1Style@@QAE@XZ$0 1005f522 f   Style.obj
 0001:0005e52d       __ehhandler$??1Style@@QAE@XZ 1005f52d f   Style.obj
 0001:0005e548       __unwindfunclet$??0Style@@QAE@XZ$0 1005f548 f   Style.obj
 0001:0005e553       __ehhandler$??0Style@@QAE@XZ 1005f553 f   Style.obj
 0001:0005e56e       __unwindfunclet$?AllocStyles@ViewStyle@@QAEXI@Z$0 1005f56e f   ViewStyle.obj
 0001:0005e578       __ehhandler$?AllocStyles@ViewStyle@@QAEXI@Z 1005f578 f   ViewStyle.obj
 0001:0005e593       __unwindfunclet$??1ViewStyle@@QAE@XZ$0 1005f593 f   ViewStyle.obj
 0001:0005e59b       __unwindfunclet$??1ViewStyle@@QAE@XZ$1 1005f59b f   ViewStyle.obj
 0001:0005e5b1       __ehhandler$??1ViewStyle@@QAE@XZ 1005f5b1 f   ViewStyle.obj
 0001:0005e5cc       __unwindfunclet$??0ViewStyle@@QAE@XZ$0 1005f5cc f   ViewStyle.obj
 0001:0005e5d4       __unwindfunclet$??0ViewStyle@@QAE@XZ$1 1005f5d4 f   ViewStyle.obj
 0001:0005e5ea       __ehhandler$??0ViewStyle@@QAE@XZ 1005f5ea f   ViewStyle.obj
 0001:0005e605       __unwindfunclet$??0ViewStyle@@QAE@ABV0@@Z$0 1005f605 f   ViewStyle.obj
 0001:0005e60d       __unwindfunclet$??0ViewStyle@@QAE@ABV0@@Z$1 1005f60d f   ViewStyle.obj
 0001:0005e623       __ehhandler$??0ViewStyle@@QAE@ABV0@@Z 1005f623 f   ViewStyle.obj
 0001:0005e63e       __unwindfunclet$?Add@XPMSet@@QAEXHPBD@Z$0 1005f63e f   XPM.obj
 0001:0005e648       __ehhandler$?Add@XPMSet@@QAEXHPBD@Z 1005f648 f   XPM.obj
 0001:0005e663       __ehhandler$?CallUnexpected@@YAXPBU_s_ESTypeList@@@Z 1005f663 f   LIBCMT:frame.obj
 0001:0005e67e       ??__Eminder@@YAXXZ         1005f67e f   ExternalLexer.obj
 0001:0005e68a       ??__ElmAbaqus@@YAXXZ       1005f68a f   LexAbaqus.obj
 0001:0005e6b8       ??__ElmAda@@YAXXZ          1005f6b8 f   LexAda.obj
 0001:0005e6e3       ??__ElmAPDL@@YAXXZ         1005f6e3 f   LexAPDL.obj
 0001:0005e711       ??__ElmAsm@@YAXXZ          1005f711 f   LexAsm.obj
 0001:0005e73c       ??__ElmAns1@@YAXXZ         1005f73c f   LexAsn1.obj
 0001:0005e76a       ??__ElmASY@@YAXXZ          1005f76a f   LexASY.obj
 0001:0005e798       ??__ElmAU3@@YAXXZ          1005f798 f   LexAU3.obj
 0001:0005e7c6       ??__ElmAVE@@YAXXZ          1005f7c6 f   LexAVE.obj
 0001:0005e7f1       ??__ElmBaan@@YAXXZ         1005f7f1 f   LexBaan.obj
 0001:0005e81c       ??__ElmBash@@YAXXZ         1005f81c f   LexBash.obj
 0001:0005e84a       ??__ElmBlitzBasic@@YAXXZ   1005f84a f   LexBasic.obj
 0001:0005e878       ??__ElmPureBasic@@YAXXZ    1005f878 f   LexBasic.obj
 0001:0005e8a6       ??__ElmFreeBasic@@YAXXZ    1005f8a6 f   LexBasic.obj
 0001:0005e8d4       ??__ElmBullant@@YAXXZ      1005f8d4 f   LexBullant.obj
 0001:0005e8ff       ??__ElmCaml@@YAXXZ         1005f8ff f   LexCaml.obj
 0001:0005e92d       ??__ElmClw@@YAXXZ          1005f92d f   LexCLW.obj
 0001:0005e95b       ??__ElmClwNoCase@@YAXXZ    1005f95b f   LexCLW.obj
 0001:0005e989       ??__ElmCmake@@YAXXZ        1005f989 f   LexCmake.obj
 0001:0005e9b7       ??__ElmCOBOL@@YAXXZ        1005f9b7 f   LexCOBOL.obj
 0001:0005e9e5       ??__ElmConf@@YAXXZ         1005f9e5 f   LexConf.obj
 0001:0005ea10       ??__ElmCPP@@YAXXZ          1005fa10 f   LexCPP.obj
 0001:0005ea3e       ??__ElmCPPNoCase@@YAXXZ    1005fa3e f   LexCPP.obj
 0001:0005ea6c       ??__ElmNncrontab@@YAXXZ    1005fa6c f   LexCrontab.obj
 0001:0005ea97       ??__ElmCsound@@YAXXZ       1005fa97 f   LexCsound.obj
 0001:0005eac5       ??__ElmCss@@YAXXZ          1005fac5 f   LexCSS.obj
 0001:0005eaf3       ??__ElmD@@YAXXZ            1005faf3 f   LexD.obj
 0001:0005eb21       ??__ElmEiffel@@YAXXZ       1005fb21 f   LexEiffel.obj
 0001:0005eb4f       ??__ElmEiffelkw@@YAXXZ     1005fb4f f   LexEiffel.obj
 0001:0005eb7d       ??__ElmErlang@@YAXXZ       1005fb7d f   LexErlang.obj
 0001:0005ebab       ??__ElmESCRIPT@@YAXXZ      1005fbab f   LexEScript.obj
 0001:0005ebd9       ??__ElmFlagShip@@YAXXZ     1005fbd9 f   LexFlagship.obj
 0001:0005ec07       ??__ElmForth@@YAXXZ        1005fc07 f   LexForth.obj
 0001:0005ec35       ??__ElmFortran@@YAXXZ      1005fc35 f   LexFortran.obj
 0001:0005ec63       ??__ElmF77@@YAXXZ          1005fc63 f   LexFortran.obj
 0001:0005ec91       ??__ElmGAP@@YAXXZ          1005fc91 f   LexGAP.obj
 0001:0005ecbf       ??__ElmGui4Cli@@YAXXZ      1005fcbf f   LexGui4Cli.obj
 0001:0005eced       ??__ElmHaskell@@YAXXZ      1005fced f   LexHaskell.obj
 0001:0005ed15       ??__ElmHTML@@YAXXZ         1005fd15 f   LexHTML.obj
 0001:0005ed40       ??__ElmXML@@YAXXZ          1005fd40 f   LexHTML.obj
 0001:0005ed6b       ??__ElmPHPSCRIPT@@YAXXZ    1005fd6b f   LexHTML.obj
 0001:0005ed96       ??__ElmInno@@YAXXZ         1005fd96 f   LexInno.obj
 0001:0005edc4       ??__ElmKix@@YAXXZ          1005fdc4 f   LexKix.obj
 0001:0005edec       ??__ElmLISP@@YAXXZ         1005fdec f   LexLisp.obj
 0001:0005ee1a       ??__ElmLout@@YAXXZ         1005fe1a f   LexLout.obj
 0001:0005ee48       ??__ElmLua@@YAXXZ          1005fe48 f   LexLua.obj
 0001:0005ee76       ??__ElmMagikSF@@YAXXZ      1005fe76 f   LexMagik.obj
 0001:0005eea4       ??__ElmMatlab@@YAXXZ       1005fea4 f   LexMatlab.obj
 0001:0005eed2       ??__ElmOctave@@YAXXZ       1005fed2 f   LexMatlab.obj
 0001:0005ef00       ??__ElmMETAPOST@@YAXXZ     1005ff00 f   LexMetapost.obj
 0001:0005ef2e       ??__ElmMMIXAL@@YAXXZ       1005ff2e f   LexMMIXAL.obj
 0001:0005ef59       ??__ElmLot@@YAXXZ          1005ff59 f   LexMPT.obj
 0001:0005ef87       ??__ElmMSSQL@@YAXXZ        1005ff87 f   LexMSSQL.obj
 0001:0005efb5       ??__ElmMySQL@@YAXXZ        1005ffb5 f   LexMySQL.obj
 0001:0005efe3       ??__ElmNimrod@@YAXXZ       1005ffe3 f   LexNimrod.obj
 0001:0005f011       ??__ElmNsis@@YAXXZ         10060011 f   LexNsis.obj
 0001:0005f03f       ??__ElmOpal@@YAXXZ         1006003f f   LexOpal.obj
 0001:0005f06a       ??__ElmBatch@@YAXXZ        1006006a f   LexOthers.obj
 0001:0005f095       ??__ElmDiff@@YAXXZ         10060095 f   LexOthers.obj
 0001:0005f0c3       ??__ElmPo@@YAXXZ           100600c3 f   LexOthers.obj
 0001:0005f0ee       ??__ElmProps@@YAXXZ        100600ee f   LexOthers.obj
 0001:0005f11c       ??__ElmMake@@YAXXZ         1006011c f   LexOthers.obj
 0001:0005f147       ??__ElmErrorList@@YAXXZ    10060147 f   LexOthers.obj
 0001:0005f172       ??__ElmLatex@@YAXXZ        10060172 f   LexOthers.obj
 0001:0005f19d       ??__ElmNull@@YAXXZ         1006019d f   LexOthers.obj
 0001:0005f1c5       ??__ElmPascal@@YAXXZ       100601c5 f   LexPascal.obj
 0001:0005f1f3       ??__ElmPB@@YAXXZ           100601f3 f   LexPB.obj
 0001:0005f221       ??__ElmPerl@@YAXXZ         10060221 f   LexPerl.obj
 0001:0005f24f       ??__ElmPLM@@YAXXZ          1006024f f   LexPLM.obj
 0001:0005f27d       ??__ElmPOV@@YAXXZ          1006027d f   LexPOV.obj
 0001:0005f2ab       ??__ElmPowerPro@@YAXXZ     100602ab f   LexPowerPro.obj
 0001:0005f2d9       ??__ElmPowerShell@@YAXXZ   100602d9 f   LexPowerShell.obj
 0001:0005f307       ??__ElmProgress@@YAXXZ     10060307 f   LexProgress.obj
 0001:0005f335       ??__ElmPS@@YAXXZ           10060335 f   LexPS.obj
 0001:0005f363       ??__ElmPython@@YAXXZ       10060363 f   LexPython.obj
 0001:0005f391       ??__ElmR@@YAXXZ            10060391 f   LexR.obj
 0001:0005f3bf       ??__ElmREBOL@@YAXXZ        100603bf f   LexRebol.obj
 0001:0005f3ed       ??__ElmRuby@@YAXXZ         100603ed f   LexRuby.obj
 0001:0005f41b       ??__ElmScriptol@@YAXXZ     1006041b f   LexScriptol.obj
 0001:0005f446       ??__ElmSmalltalk@@YAXXZ    10060446 f   LexSmalltalk.obj
 0001:0005f471       ??__ElmSML@@YAXXZ          10060471 f   LexSML.obj
 0001:0005f49f       ??__ElmSorc@@YAXXZ         1006049f f   LexSorcus.obj
 0001:0005f4ca       ??__ElmSpecman@@YAXXZ      100604ca f   LexSpecman.obj
 0001:0005f4f8       ??__ElmSpice@@YAXXZ        100604f8 f   LexSpice.obj
 0001:0005f523       ??__ElmSQL@@YAXXZ          10060523 f   LexSQL.obj
 0001:0005f551       ??__ElmTACL@@YAXXZ         10060551 f   LexTACL.obj
 0001:0005f57f       ??__ElmTADS3@@YAXXZ        1006057f f   LexTADS3.obj
 0001:0005f5ad       ??__ElmTAL@@YAXXZ          100605ad f   LexTAL.obj
 0001:0005f5db       ??__ElmTCL@@YAXXZ          100605db f   LexTCL.obj
 0001:0005f606       ??__ElmTeX@@YAXXZ          10060606 f   LexTeX.obj
 0001:0005f634       ??__ElmVB@@YAXXZ           10060634 f   LexVB.obj
 0001:0005f662       ??__ElmVBScript@@YAXXZ     10060662 f   LexVB.obj
 0001:0005f690       ??__ElmVerilog@@YAXXZ      10060690 f   LexVerilog.obj
 0001:0005f6be       ??__ElmVHDL@@YAXXZ         100606be f   LexVHDL.obj
 0001:0005f6ec       ??__ElmYAML@@YAXXZ         100606ec f   LexYAML.obj
 0001:0005f71a       ??__Fminder@@YAXXZ         1006071a f   ExternalLexer.obj
 0001:0005f724       ??__FlmAbaqus@@YAXXZ       10060724 f   LexAbaqus.obj
 0001:0005f72f       ??__FlmAda@@YAXXZ          1006072f f   LexAda.obj
 0001:0005f73a       ??__FlmAPDL@@YAXXZ         1006073a f   LexAPDL.obj
 0001:0005f745       ??__FlmAsm@@YAXXZ          10060745 f   LexAsm.obj
 0001:0005f750       ??__FlmAns1@@YAXXZ         10060750 f   LexAsn1.obj
 0001:0005f75b       ??__FlmASY@@YAXXZ          1006075b f   LexASY.obj
 0001:0005f766       ??__FlmAU3@@YAXXZ          10060766 f   LexAU3.obj
 0001:0005f771       ??__FlmAVE@@YAXXZ          10060771 f   LexAVE.obj
 0001:0005f77c       ??__FlmBaan@@YAXXZ         1006077c f   LexBaan.obj
 0001:0005f787       ??__FlmBash@@YAXXZ         10060787 f   LexBash.obj
 0001:0005f792       ??__FlmBlitzBasic@@YAXXZ   10060792 f   LexBasic.obj
 0001:0005f79d       ??__FlmPureBasic@@YAXXZ    1006079d f   LexBasic.obj
 0001:0005f7a8       ??__FlmFreeBasic@@YAXXZ    100607a8 f   LexBasic.obj
 0001:0005f7b3       ??__FlmBullant@@YAXXZ      100607b3 f   LexBullant.obj
 0001:0005f7be       ??__FlmCaml@@YAXXZ         100607be f   LexCaml.obj
 0001:0005f7c9       ??__FlmClw@@YAXXZ          100607c9 f   LexCLW.obj
 0001:0005f7d4       ??__FlmClwNoCase@@YAXXZ    100607d4 f   LexCLW.obj
 0001:0005f7df       ??__FlmCmake@@YAXXZ        100607df f   LexCmake.obj
 0001:0005f7ea       ??__FlmCOBOL@@YAXXZ        100607ea f   LexCOBOL.obj
 0001:0005f7f5       ??__FlmConf@@YAXXZ         100607f5 f   LexConf.obj
 0001:0005f800       ??__FlmCPP@@YAXXZ          10060800 f   LexCPP.obj
 0001:0005f80b       ??__FlmCPPNoCase@@YAXXZ    1006080b f   LexCPP.obj
 0001:0005f816       ??__FlmNncrontab@@YAXXZ    10060816 f   LexCrontab.obj
 0001:0005f821       ??__FlmCsound@@YAXXZ       10060821 f   LexCsound.obj
 0001:0005f82c       ??__FlmCss@@YAXXZ          1006082c f   LexCSS.obj
 0001:0005f837       ??__FlmD@@YAXXZ            10060837 f   LexD.obj
 0001:0005f842       ??__FlmEiffel@@YAXXZ       10060842 f   LexEiffel.obj
 0001:0005f84d       ??__FlmEiffelkw@@YAXXZ     1006084d f   LexEiffel.obj
 0001:0005f858       ??__FlmErlang@@YAXXZ       10060858 f   LexErlang.obj
 0001:0005f863       ??__FlmESCRIPT@@YAXXZ      10060863 f   LexEScript.obj
 0001:0005f86e       ??__FlmFlagShip@@YAXXZ     1006086e f   LexFlagship.obj
 0001:0005f879       ??__FlmForth@@YAXXZ        10060879 f   LexForth.obj
 0001:0005f884       ??__FlmFortran@@YAXXZ      10060884 f   LexFortran.obj
 0001:0005f88f       ??__FlmF77@@YAXXZ          1006088f f   LexFortran.obj
 0001:0005f89a       ??__FlmGAP@@YAXXZ          1006089a f   LexGAP.obj
 0001:0005f8a5       ??__FlmGui4Cli@@YAXXZ      100608a5 f   LexGui4Cli.obj
 0001:0005f8b0       ??__FlmHaskell@@YAXXZ      100608b0 f   LexHaskell.obj
 0001:0005f8bb       ??__FlmHTML@@YAXXZ         100608bb f   LexHTML.obj
 0001:0005f8c6       ??__FlmXML@@YAXXZ          100608c6 f   LexHTML.obj
 0001:0005f8d1       ??__FlmPHPSCRIPT@@YAXXZ    100608d1 f   LexHTML.obj
 0001:0005f8dc       ??__FlmInno@@YAXXZ         100608dc f   LexInno.obj
 0001:0005f8e7       ??__FlmKix@@YAXXZ          100608e7 f   LexKix.obj
 0001:0005f8f2       ??__FlmLISP@@YAXXZ         100608f2 f   LexLisp.obj
 0001:0005f8fd       ??__FlmLout@@YAXXZ         100608fd f   LexLout.obj
 0001:0005f908       ??__FlmLua@@YAXXZ          10060908 f   LexLua.obj
 0001:0005f913       ??__FlmMagikSF@@YAXXZ      10060913 f   LexMagik.obj
 0001:0005f91e       ??__FlmMatlab@@YAXXZ       1006091e f   LexMatlab.obj
 0001:0005f929       ??__FlmOctave@@YAXXZ       10060929 f   LexMatlab.obj
 0001:0005f934       ??__FlmMETAPOST@@YAXXZ     10060934 f   LexMetapost.obj
 0001:0005f93f       ??__FlmMMIXAL@@YAXXZ       1006093f f   LexMMIXAL.obj
 0001:0005f94a       ??__FlmLot@@YAXXZ          1006094a f   LexMPT.obj
 0001:0005f955       ??__FlmMSSQL@@YAXXZ        10060955 f   LexMSSQL.obj
 0001:0005f960       ??__FlmMySQL@@YAXXZ        10060960 f   LexMySQL.obj
 0001:0005f96b       ??__FlmNimrod@@YAXXZ       1006096b f   LexNimrod.obj
 0001:0005f976       ??__FlmNsis@@YAXXZ         10060976 f   LexNsis.obj
 0001:0005f981       ??__FlmOpal@@YAXXZ         10060981 f   LexOpal.obj
 0001:0005f98c       ??__FlmBatch@@YAXXZ        1006098c f   LexOthers.obj
 0001:0005f997       ??__FlmDiff@@YAXXZ         10060997 f   LexOthers.obj
 0001:0005f9a2       ??__FlmPo@@YAXXZ           100609a2 f   LexOthers.obj
 0001:0005f9ad       ??__FlmProps@@YAXXZ        100609ad f   LexOthers.obj
 0001:0005f9b8       ??__FlmMake@@YAXXZ         100609b8 f   LexOthers.obj
 0001:0005f9c3       ??__FlmErrorList@@YAXXZ    100609c3 f   LexOthers.obj
 0001:0005f9ce       ??__FlmLatex@@YAXXZ        100609ce f   LexOthers.obj
 0001:0005f9d9       ??__FlmNull@@YAXXZ         100609d9 f   LexOthers.obj
 0001:0005f9e4       ??__FlmPascal@@YAXXZ       100609e4 f   LexPascal.obj
 0001:0005f9ef       ??__FlmPB@@YAXXZ           100609ef f   LexPB.obj
 0001:0005f9fa       ??__FlmPerl@@YAXXZ         100609fa f   LexPerl.obj
 0001:0005fa05       ??__FlmPLM@@YAXXZ          10060a05 f   LexPLM.obj
 0001:0005fa10       ??__FlmPOV@@YAXXZ          10060a10 f   LexPOV.obj
 0001:0005fa1b       ??__FlmPowerPro@@YAXXZ     10060a1b f   LexPowerPro.obj
 0001:0005fa26       ??__FlmPowerShell@@YAXXZ   10060a26 f   LexPowerShell.obj
 0001:0005fa31       ??__FlmProgress@@YAXXZ     10060a31 f   LexProgress.obj
 0001:0005fa3c       ??__FlmPS@@YAXXZ           10060a3c f   LexPS.obj
 0001:0005fa47       ??__FlmPython@@YAXXZ       10060a47 f   LexPython.obj
 0001:0005fa52       ??__FlmR@@YAXXZ            10060a52 f   LexR.obj
 0001:0005fa5d       ??__FlmREBOL@@YAXXZ        10060a5d f   LexRebol.obj
 0001:0005fa68       ??__FlmRuby@@YAXXZ         10060a68 f   LexRuby.obj
 0001:0005fa73       ??__FlmScriptol@@YAXXZ     10060a73 f   LexScriptol.obj
 0001:0005fa7e       ??__FlmSmalltalk@@YAXXZ    10060a7e f   LexSmalltalk.obj
 0001:0005fa89       ??__FlmSML@@YAXXZ          10060a89 f   LexSML.obj
 0001:0005fa94       ??__FlmSorc@@YAXXZ         10060a94 f   LexSorcus.obj
 0001:0005fa9f       ??__FlmSpecman@@YAXXZ      10060a9f f   LexSpecman.obj
 0001:0005faaa       ??__FlmSpice@@YAXXZ        10060aaa f   LexSpice.obj
 0001:0005fab5       ??__FlmSQL@@YAXXZ          10060ab5 f   LexSQL.obj
 0001:0005fac0       ??__FlmTACL@@YAXXZ         10060ac0 f   LexTACL.obj
 0001:0005facb       ??__FlmTADS3@@YAXXZ        10060acb f   LexTADS3.obj
 0001:0005fad6       ??__FlmTAL@@YAXXZ          10060ad6 f   LexTAL.obj
 0001:0005fae1       ??__FlmTCL@@YAXXZ          10060ae1 f   LexTCL.obj
 0001:0005faec       ??__FlmTeX@@YAXXZ          10060aec f   LexTeX.obj
 0001:0005faf7       ??__FlmVB@@YAXXZ           10060af7 f   LexVB.obj
 0001:0005fb02       ??__FlmVBScript@@YAXXZ     10060b02 f   LexVB.obj
 0001:0005fb0d       ??__FlmVerilog@@YAXXZ      10060b0d f   LexVerilog.obj
 0001:0005fb18       ??__FlmVHDL@@YAXXZ         10060b18 f   LexVHDL.obj
 0001:0005fb23       ??__FlmYAML@@YAXXZ         10060b23 f   LexYAML.obj
 0001:0005fb2e       ??__Fnomem@?5???2@YAPAXI@Z@YAXXZ 10060b2e f   LIBCMT:new.obj
